 0x000000000000000e (SONAME)             Library soname: [libcamera.so.0.5]
lttng_ust_tracepoint_libcamera___ipa_call_begin D 38
lttng_ust_tracepoint_libcamera___ipa_call_end D 38
lttng_ust_tracepoint_libcamera___request_cancel D 38
lttng_ust_tracepoint_libcamera___request_complete D 38
lttng_ust_tracepoint_libcamera___request_complete_buffer D 38
lttng_ust_tracepoint_libcamera___request_construct D 38
lttng_ust_tracepoint_libcamera___request_destroy D 38
lttng_ust_tracepoint_libcamera___request_device_queue D 38
lttng_ust_tracepoint_libcamera___request_queue D 38
lttng_ust_tracepoint_libcamera___request_reuse D 38
lttng_ust_tracepoint_provider_libcamera B 4
__start_lttng_ust_tracepoints_ptrs D
__stop_lttng_ust_tracepoints_ptrs D
_ZGVZNKSt8__detail11_AnyMatcherINSt7__cxx1112regex_traitsIcEELb0ELb0ELb0EEclEcE5__nul u
_ZGVZNKSt8__detail11_AnyMatcherINSt7__cxx1112regex_traitsIcEELb0ELb0ELb1EEclEcE5__nul u
_ZGVZNKSt8__detail11_AnyMatcherINSt7__cxx1112regex_traitsIcEELb0ELb1ELb0EEclEcE5__nul u
_ZGVZNKSt8__detail11_AnyMatcherINSt7__cxx1112regex_traitsIcEELb0ELb1ELb1EEclEcE5__nul u
_ZN9__gnu_cxx12__to_xstringINSt7__cxx1112basic_stringIcSt11char_traitsIcESaIcEEEcEET_PFiPT0_mPKS8_St9__va_listEmSB_z W
_ZN9libcamera10CameraLens16setFocusPositionEi T
_ZN9libcamera10CameraLens18validateLensDriverEv T
_ZN9libcamera10CameraLens4initEv T
_ZN9libcamera10CameraLensC1EPKNS_11MediaEntityE T
_ZN9libcamera10CameraLensC2EPKNS_11MediaEntityE T
_ZN9libcamera10CameraLensD0Ev T
_ZN9libcamera10CameraLensD1Ev T
_ZN9libcamera10CameraLensD2Ev T
_ZN9libcamera10ColorSpace10fromStringERKNSt7__cxx1112basic_stringIcSt11char_traitsIcESaIcEEE T
_ZN9libcamera10ColorSpace3RawE R
_ZN9libcamera10ColorSpace4SrgbE R
_ZN9libcamera10ColorSpace4SyccE R
_ZN9libcamera10ColorSpace6adjustENS_11PixelFormatE T
_ZN9libcamera10ColorSpace6Rec709E R
_ZN9libcamera10ColorSpace7Rec2020E R
_ZN9libcamera10ColorSpace8toStringB5cxx11ERKSt8optionalIS0_E T
_ZN9libcamera10ColorSpace9Smpte170mE R
_ZN9libcamera10DebayerCpu11patternSizeENS_11PixelFormatE T
_ZN9libcamera10DebayerCpu14getInputConfigENS_11PixelFormatERNS0_18DebayerInputConfigE T
_ZN9libcamera10DebayerCpu14memcpyNextLineEPPKh T
_ZN9libcamera10DebayerCpu15getOutputConfigENS_11PixelFormatERNS0_19DebayerOutputConfigE T
_ZN9libcamera10DebayerCpu16setupInputMemcpyEPPKh T
_ZN9libcamera10DebayerCpu17shiftLinePointersEPPKhS2_ T
_ZN9libcamera10DebayerCpu18strideAndFrameSizeERKNS_11PixelFormatERKNS_4SizeE T
_ZN9libcamera10DebayerCpu19setDebayerFunctionsENS_11PixelFormatES1_b T
_ZN9libcamera10DebayerCpu20debayer8_BGBG_BGR888ILb0ELb0EEEvPhPPKh W
_ZN9libcamera10DebayerCpu20debayer8_BGBG_BGR888ILb0ELb1EEEvPhPPKh W
_ZN9libcamera10DebayerCpu20debayer8_BGBG_BGR888ILb1ELb0EEEvPhPPKh W
_ZN9libcamera10DebayerCpu20debayer8_BGBG_BGR888ILb1ELb1EEEvPhPPKh W
_ZN9libcamera10DebayerCpu20debayer8_GRGR_BGR888ILb0ELb0EEEvPhPPKh W
_ZN9libcamera10DebayerCpu20debayer8_GRGR_BGR888ILb0ELb1EEEvPhPPKh W
_ZN9libcamera10DebayerCpu20debayer8_GRGR_BGR888ILb1ELb0EEEvPhPPKh W
_ZN9libcamera10DebayerCpu20debayer8_GRGR_BGR888ILb1ELb1EEEvPhPPKh W
_ZN9libcamera10DebayerCpu21debayer10_BGBG_BGR888ILb0ELb0EEEvPhPPKh W
_ZN9libcamera10DebayerCpu21debayer10_BGBG_BGR888ILb0ELb1EEEvPhPPKh W
_ZN9libcamera10DebayerCpu21debayer10_BGBG_BGR888ILb1ELb0EEEvPhPPKh W
_ZN9libcamera10DebayerCpu21debayer10_BGBG_BGR888ILb1ELb1EEEvPhPPKh W
_ZN9libcamera10DebayerCpu21debayer10_GRGR_BGR888ILb0ELb0EEEvPhPPKh W
_ZN9libcamera10DebayerCpu21debayer10_GRGR_BGR888ILb0ELb1EEEvPhPPKh W
_ZN9libcamera10DebayerCpu21debayer10_GRGR_BGR888ILb1ELb0EEEvPhPPKh W
_ZN9libcamera10DebayerCpu21debayer10_GRGR_BGR888ILb1ELb1EEEvPhPPKh W
_ZN9libcamera10DebayerCpu21debayer12_BGBG_BGR888ILb0ELb0EEEvPhPPKh W
_ZN9libcamera10DebayerCpu21debayer12_BGBG_BGR888ILb0ELb1EEEvPhPPKh W
_ZN9libcamera10DebayerCpu21debayer12_BGBG_BGR888ILb1ELb0EEEvPhPPKh W
_ZN9libcamera10DebayerCpu21debayer12_BGBG_BGR888ILb1ELb1EEEvPhPPKh W
_ZN9libcamera10DebayerCpu21debayer12_GRGR_BGR888ILb0ELb0EEEvPhPPKh W
_ZN9libcamera10DebayerCpu21debayer12_GRGR_BGR888ILb0ELb1EEEvPhPPKh W
_ZN9libcamera10DebayerCpu21debayer12_GRGR_BGR888ILb1ELb0EEEvPhPPKh W
_ZN9libcamera10DebayerCpu21debayer12_GRGR_BGR888ILb1ELb1EEEvPhPPKh W
_ZN9libcamera10DebayerCpu22debayer10P_BGBG_BGR888ILb0ELb0EEEvPhPPKh W
_ZN9libcamera10DebayerCpu22debayer10P_BGBG_BGR888ILb0ELb1EEEvPhPPKh W
_ZN9libcamera10DebayerCpu22debayer10P_BGBG_BGR888ILb1ELb0EEEvPhPPKh W
_ZN9libcamera10DebayerCpu22debayer10P_BGBG_BGR888ILb1ELb1EEEvPhPPKh W
_ZN9libcamera10DebayerCpu22debayer10P_GBGB_BGR888ILb0ELb0EEEvPhPPKh W
_ZN9libcamera10DebayerCpu22debayer10P_GBGB_BGR888ILb0ELb1EEEvPhPPKh W
_ZN9libcamera10DebayerCpu22debayer10P_GBGB_BGR888ILb1ELb0EEEvPhPPKh W
_ZN9libcamera10DebayerCpu22debayer10P_GBGB_BGR888ILb1ELb1EEEvPhPPKh W
_ZN9libcamera10DebayerCpu22debayer10P_GRGR_BGR888ILb0ELb0EEEvPhPPKh W
_ZN9libcamera10DebayerCpu22debayer10P_GRGR_BGR888ILb0ELb1EEEvPhPPKh W
_ZN9libcamera10DebayerCpu22debayer10P_GRGR_BGR888ILb1ELb0EEEvPhPPKh W
_ZN9libcamera10DebayerCpu22debayer10P_GRGR_BGR888ILb1ELb1EEEvPhPPKh W
_ZN9libcamera10DebayerCpu22debayer10P_RGRG_BGR888ILb0ELb0EEEvPhPPKh W
_ZN9libcamera10DebayerCpu22debayer10P_RGRG_BGR888ILb0ELb1EEEvPhPPKh W
_ZN9libcamera10DebayerCpu22debayer10P_RGRG_BGR888ILb1ELb0EEEvPhPPKh W
_ZN9libcamera10DebayerCpu22debayer10P_RGRG_BGR888ILb1ELb1EEEvPhPPKh W
_ZN9libcamera10DebayerCpu23setupStandardBayerOrderENS_11BayerFormat5OrderE T
_ZN9libcamera10DebayerCpu5sizesENS_11PixelFormatERKNS_4SizeE T
_ZN9libcamera10DebayerCpu7formatsENS_11PixelFormatE T
_ZN9libcamera10DebayerCpu7processEjPNS_11FrameBufferES2_NS_13DebayerParamsE T
_ZN9libcamera10DebayerCpu8process2EPKhPh T
_ZN9libcamera10DebayerCpu8process4EPKhPh T
_ZN9libcamera10DebayerCpu9configureERKNS_19StreamConfigurationERKSt6vectorISt17reference_wrapperIS1_ESaIS6_EEb T
_ZN9libcamera10DebayerCpuC1ESt10unique_ptrINS_10SwStatsCpuESt14default_deleteIS2_EE T
_ZN9libcamera10DebayerCpuC2ESt10unique_ptrINS_10SwStatsCpuESt14default_deleteIS2_EE T
_ZN9libcamera10DebayerCpuD0Ev T
_ZN9libcamera10DebayerCpuD1Ev T
_ZN9libcamera10DebayerCpuD2Ev T
_ZN9libcamera10IPAManager14publicKeyData_E R
_ZN9libcamera10IPAManager6addDirEPKcj T
_ZN9libcamera10IPAManager6moduleEPNS_15PipelineHandlerEjj T
_ZN9libcamera10IPAManager7pubKey_E B 10
_ZN9libcamera10IPAManager8parseDirEPKcjRSt6vectorINSt7__cxx1112basic_stringIcSt11char_traitsIcESaIcEEESaIS9_EE T
_ZN9libcamera10IPAManagerC1Ev T
_ZN9libcamera10IPAManagerC2Ev T
_ZN9libcamera10IPAManagerD1Ev T
_ZN9libcamera10IPAManagerD2Ev T
_ZN9libcamera10IPCMessageC1Ej T
_ZN9libcamera10IPCMessageC1ERKNS0_6HeaderE T
_ZN9libcamera10IPCMessageC1ERNS_13IPCUnixSocket7PayloadE T
_ZN9libcamera10IPCMessageC1Ev T
_ZN9libcamera10IPCMessageC2Ej T
_ZN9libcamera10IPCMessageC2ERKNS0_6HeaderE T
_ZN9libcamera10IPCMessageC2ERNS_13IPCUnixSocket7PayloadE T
_ZN9libcamera10IPCMessageC2Ev T
_ZN9libcamera10properties10propertiesE B 38
_ZN9libcamera10properties12UnitCellSizeE B b8
_ZN9libcamera10properties13SystemDevicesE B b8
_ZN9libcamera10properties14LocationValuesE B 30
_ZN9libcamera10properties14PixelArraySizeE B b8
_ZN9libcamera10properties17ScalerCropMaximumE B b8
_ZN9libcamera10properties17SensorSensitivityE B b8
_ZN9libcamera10properties20LocationNameValueMapB5cxx11E B 30
_ZN9libcamera10properties21PixelArrayActiveAreasE B b8
_ZN9libcamera10properties32PixelArrayOpticalBlackRectanglesE B b8
_ZN9libcamera10properties5draft22ColorFilterArrangementE B b8
_ZN9libcamera10properties5draft28ColorFilterArrangementValuesE B 60
_ZN9libcamera10properties5draft34ColorFilterArrangementNameValueMapB5cxx11E B 30
_ZN9libcamera10properties5ModelB5cxx11E B b8
_ZN9libcamera10properties8LocationE B b8
_ZN9libcamera10properties8RotationE B b8
_ZN9libcamera10RkISP1Path15populateFormatsEv T
_ZN9libcamera10RkISP1Path21generateConfigurationEPKNS_12CameraSensorERKNS_4SizeENS_10StreamRoleE T
_ZN9libcamera10RkISP1Path22filterSensorResolutionEPKNS_12CameraSensorE T
_ZN9libcamera10RkISP1Path4initEPNS_11MediaDeviceE T
_ZN9libcamera10RkISP1Path4stopEv T
_ZN9libcamera10RkISP1Path5startEv T
_ZN9libcamera10RkISP1Path8validateEPKNS_12CameraSensorERKSt8optionalINS_19SensorConfigurationEEPNS_19StreamConfigurationE T
_ZN9libcamera10RkISP1Path9configureERKNS_19StreamConfigurationERKNS_19V4L2SubdeviceFormatE T
_ZN9libcamera10RkISP1PathC1EPKcRKNS_4SpanIKNS_11PixelFormatELm18446744073709551615EEERKNS_4SizeESB_ T
_ZN9libcamera10RkISP1PathC2EPKcRKNS_4SpanIKNS_11PixelFormatELm18446744073709551615EEERKNS_4SizeESB_ T
_ZN9libcamera10RkISP1PathD1Ev W
_ZN9libcamera10RkISP1PathD2Ev W
_ZN9libcamera10SwStatsCpu10startFrameEv T
_ZN9libcamera10SwStatsCpu11finishFrameEjj T
_ZN9libcamera10SwStatsCpu15statsBGGR8Line0EPPKh T
_ZN9libcamera10SwStatsCpu16statsBGGR10Line0EPPKh T
_ZN9libcamera10SwStatsCpu16statsBGGR12Line0EPPKh T
_ZN9libcamera10SwStatsCpu17statsBGGR10PLine0EPPKh T
_ZN9libcamera10SwStatsCpu17statsGBRG10PLine0EPPKh T
_ZN9libcamera10SwStatsCpu23setupStandardBayerOrderENS_11BayerFormat5OrderE T
_ZN9libcamera10SwStatsCpu9configureERKNS_19StreamConfigurationE T
_ZN9libcamera10SwStatsCpu9setWindowERKNS_9RectangleE T
_ZN9libcamera10SwStatsCpuC1Ev T
_ZN9libcamera10SwStatsCpuC2Ev T
_ZN9libcamera10V4L2Device11getControlsERKSt6vectorIjSaIjEE T
_ZN9libcamera10V4L2Device11setControlsEPNS_11ControlListE T
_ZN9libcamera10V4L2Device12listControlsEv T
_ZN9libcamera10V4L2Device12toColorSpaceI15v4l2_pix_formatEESt8optionalINS_10ColorSpaceEERKT_NS_15PixelFormatInfo14ColourEncodingE W
_ZN9libcamera10V4L2Device12toColorSpaceI18v4l2_mbus_framefmtEESt8optionalINS_10ColorSpaceEERKT_NS_15PixelFormatInfo14ColourEncodingE W
_ZN9libcamera10V4L2Device12toColorSpaceI22v4l2_pix_format_mplaneEESt8optionalINS_10ColorSpaceEERKT_NS_15PixelFormatInfo14ColourEncodingE W
_ZN9libcamera10V4L2Device12v4l2CtrlTypeEj T
_ZN9libcamera10V4L2Device13v4l2ControlIdERK19v4l2_query_ext_ctrl T
_ZN9libcamera10V4L2Device14eventAvailableEv T
_ZN9libcamera10V4L2Device14fromColorSpaceI15v4l2_pix_formatEEiRKSt8optionalINS_10ColorSpaceEERT_ W
_ZN9libcamera10V4L2Device14fromColorSpaceI18v4l2_mbus_framefmtEEiRKSt8optionalINS_10ColorSpaceEERT_ W
_ZN9libcamera10V4L2Device14fromColorSpaceI22v4l2_pix_format_mplaneEEiRKSt8optionalINS_10ColorSpaceEERT_ W
_ZN9libcamera10V4L2Device14updateControlsEPNS_11ControlListENS_4SpanIK16v4l2_ext_controlLm18446744073709551615EEE T
_ZN9libcamera10V4L2Device15v4l2ControlInfoERK19v4l2_query_ext_ctrl T
_ZN9libcamera10V4L2Device17updateControlInfoEv T
_ZN9libcamera10V4L2Device19v4l2MenuControlInfoERK19v4l2_query_ext_ctrl T
_ZN9libcamera10V4L2Device20setFrameStartEnabledEb T
_ZN9libcamera10V4L2Device23supportsFrameStartEventEv T
_ZN9libcamera10V4L2Device4openEj T
_ZN9libcamera10V4L2Device5closeEv T
_ZN9libcamera10V4L2Device5ioctlEmPv T
_ZN9libcamera10V4L2Device5setFdENS_8UniqueFDE T
_ZN9libcamera10V4L2DeviceC1ERKNSt7__cxx1112basic_stringIcSt11char_traitsIcESaIcEEE T
_ZN9libcamera10V4L2DeviceC2ERKNSt7__cxx1112basic_stringIcSt11char_traitsIcESaIcEEE T
_ZN9libcamera10V4L2DeviceD0Ev T
_ZN9libcamera10V4L2DeviceD1Ev T
_ZN9libcamera10V4L2DeviceD2Ev T
_ZN9libcamera10YamlObjectC1Ev T
_ZN9libcamera10YamlObjectC2Ev T
_ZN9libcamera10YamlObjectD1Ev T
_ZN9libcamera10YamlObjectD2Ev T
_ZN9libcamera10YamlParser5parseERNS_4FileE T
_ZN9libcamera11BayerFormat12fromMbusCodeEj T
_ZN9libcamera11BayerFormat15fromPixelFormatENS_11PixelFormatE T
_ZN9libcamera11BayerFormat19fromV4L2PixelFormatENS_15V4L2PixelFormatE T
_ZN9libcamera11ControlInfoC1Eb T
_ZN9libcamera11ControlInfoC1ENS_4SpanIKNS_12ControlValueELm18446744073709551615EEERS3_ T
_ZN9libcamera11ControlInfoC1ERKNS_12ControlValueES3_S3_ T
_ZN9libcamera11ControlInfoC1ESt3setIbSt4lessIbESaIbEEb T
_ZN9libcamera11ControlInfoC2Eb T
_ZN9libcamera11ControlInfoC2ENS_4SpanIKNS_12ControlValueELm18446744073709551615EEERS3_ T
_ZN9libcamera11ControlInfoC2ERKNS_12ControlValueES3_S3_ T
_ZN9libcamera11ControlInfoC2ESt3setIbSt4lessIbESaIbEEb T
_ZN9libcamera11ControlInfoD1Ev W
_ZN9libcamera11ControlInfoD2Ev W
_ZN9libcamera11ControlList3setEjRKNS_12ControlValueE T
_ZN9libcamera11ControlList4findEj T
_ZN9libcamera11ControlList5mergeERKS0_NS0_11MergePolicyE T
_ZN9libcamera11ControlListC1ERKNS_14ControlInfoMapEPKNS_16ControlValidatorE T
_ZN9libcamera11ControlListC1ERKS0_ W
_ZN9libcamera11ControlListC1ERKSt13unordered_mapIjPKNS_9ControlIdESt4hashIjESt8equal_toIjESaISt4pairIKjS4_EEEPKNS_16ControlValidatorE T
_ZN9libcamera11ControlListC1Ev T
_ZN9libcamera11ControlListC2ERKNS_14ControlInfoMapEPKNS_16ControlValidatorE T
_ZN9libcamera11ControlListC2ERKS0_ W
_ZN9libcamera11ControlListC2ERKSt13unordered_mapIjPKNS_9ControlIdESt4hashIjESt8equal_toIjESaISt4pairIKjS4_EEEPKNS_16ControlValidatorE T
_ZN9libcamera11ControlListC2Ev T
_ZN9libcamera11DeviceMatch3addERKNSt7__cxx1112basic_stringIcSt11char_traitsIcESaIcEEE T
_ZN9libcamera11DeviceMatchC1ERKNSt7__cxx1112basic_stringIcSt11char_traitsIcESaIcEEE T
_ZN9libcamera11DeviceMatchC2ERKNSt7__cxx1112basic_stringIcSt11char_traitsIcESaIcEEE T
_ZN9libcamera11FrameBuffer12releaseFenceEv T
_ZN9libcamera11FrameBuffer7PrivateC1ERKSt6vectorINS0_5PlaneESaIS3_EEm T
_ZN9libcamera11FrameBuffer7PrivateC2ERKSt6vectorINS0_5PlaneESaIS3_EEm T
_ZN9libcamera11FrameBuffer7PrivateD0Ev T
_ZN9libcamera11FrameBuffer7PrivateD1Ev T
_ZN9libcamera11FrameBuffer7PrivateD2Ev T
_ZN9libcamera11FrameBuffer9setCookieEm T
_ZN9libcamera11FrameBufferC1ERKSt6vectorINS0_5PlaneESaIS2_EEj T
_ZN9libcamera11FrameBufferC1ESt10unique_ptrINS0_7PrivateESt14default_deleteIS2_EE T
_ZN9libcamera11FrameBufferC2ERKSt6vectorINS0_5PlaneESaIS2_EEj T
_ZN9libcamera11FrameBufferC2ESt10unique_ptrINS0_7PrivateESt14default_deleteIS2_EE T
_ZN9libcamera11FrameBufferD0Ev W
_ZN9libcamera11FrameBufferD1Ev W
_ZN9libcamera11FrameBufferD2Ev W
_ZN9libcamera11MediaDevice12disableLinksEv T
_ZN9libcamera11MediaDevice12populatePadsERK17media_v2_topology T
_ZN9libcamera11MediaDevice13findInterfaceERK17media_v2_topologyj T
_ZN9libcamera11MediaDevice13populateLinksERK17media_v2_topology T
_ZN9libcamera11MediaDevice14locateEntitiesEj T
_ZN9libcamera11MediaDevice16fixupEntityFlagsEP15media_v2_entity T
_ZN9libcamera11MediaDevice16populateEntitiesERK17media_v2_topology T
_ZN9libcamera11MediaDevice4linkEPKNS_11MediaEntityEjS3_j T
_ZN9libcamera11MediaDevice4linkEPKNS_8MediaPadES3_ T
_ZN9libcamera11MediaDevice4linkERKNSt7__cxx1112basic_stringIcSt11char_traitsIcESaIcEEEjS8_j T
_ZN9libcamera11MediaDevice4lockEv T
_ZN9libcamera11MediaDevice4openEv T
_ZN9libcamera11MediaDevice5clearEv T
_ZN9libcamera11MediaDevice5closeEv T
_ZN9libcamera11MediaDevice6objectEj T
_ZN9libcamera11MediaDevice6unlockEv T
_ZN9libcamera11MediaDevice7acquireEv T
_ZN9libcamera11MediaDevice7releaseEv T
_ZN9libcamera11MediaDevice8populateEv T
_ZN9libcamera11MediaDevice9addObjectEPNS_11MediaObjectE T
_ZN9libcamera11MediaDevice9setupLinkEPKNS_9MediaLinkEj T
_ZN9libcamera11MediaDeviceC1ERKNSt7__cxx1112basic_stringIcSt11char_traitsIcESaIcEEE T
_ZN9libcamera11MediaDeviceC2ERKNSt7__cxx1112basic_stringIcSt11char_traitsIcESaIcEEE T
_ZN9libcamera11MediaDeviceD0Ev T
_ZN9libcamera11MediaDeviceD1Ev T
_ZN9libcamera11MediaDeviceD2Ev T
_ZN9libcamera11MediaEntity13setDeviceNodeERKNSt7__cxx1112basic_stringIcSt11char_traitsIcESaIcEEE T
_ZN9libcamera11MediaEntity18addAncillaryEntityEPS0_ T
_ZN9libcamera11MediaEntity6addPadEPNS_8MediaPadE T
_ZN9libcamera11MediaEntityC1EPNS_11MediaDeviceEPK15media_v2_entityPK18media_v2_interface T
_ZN9libcamera11MediaEntityC2EPNS_11MediaDeviceEPK15media_v2_entityPK18media_v2_interface T
_ZN9libcamera11MediaEntityD0Ev W
_ZN9libcamera11MediaEntityD1Ev W
_ZN9libcamera11MediaEntityD2Ev W
_ZN9libcamera11PixelFormat10fromStringERKNSt7__cxx1112basic_stringIcSt11char_traitsIcESaIcEEE T
_ZN9libcamera11SoftwareIsp10inputReadyEPNS_11FrameBufferE T
_ZN9libcamera11SoftwareIsp10statsReadyEjj T
_ZN9libcamera11SoftwareIsp11outputReadyEPNS_11FrameBufferE T
_ZN9libcamera11SoftwareIsp12processStatsEjjRKNS_11ControlListE T
_ZN9libcamera11SoftwareIsp12queueBuffersEjPNS_11FrameBufferERKSt3mapIPKNS_6StreamES2_St4lessIS6_ESaISt4pairIKS6_S2_EEE T
_ZN9libcamera11SoftwareIsp12queueRequestEjRKNS_11ControlListE T
_ZN9libcamera11SoftwareIsp13exportBuffersEPKNS_6StreamEjPSt6vectorISt10unique_ptrINS_11FrameBufferESt14default_deleteIS6_EESaIS9_EE T
_ZN9libcamera11SoftwareIsp13saveIspParamsEv T
_ZN9libcamera11SoftwareIsp14setSensorCtrlsERKNS_11ControlListE T
_ZN9libcamera11SoftwareIsp18strideAndFrameSizeERKNS_11PixelFormatERKNS_4SizeE T
_ZN9libcamera11SoftwareIsp4stopEv T
_ZN9libcamera11SoftwareIsp5sizesENS_11PixelFormatERKNS_4SizeE T
_ZN9libcamera11SoftwareIsp5startEv T
_ZN9libcamera11SoftwareIsp7formatsENS_11PixelFormatE T
_ZN9libcamera11SoftwareIsp7processEjPNS_11FrameBufferES2_ T
_ZN9libcamera11SoftwareIsp9configureERKNS_19StreamConfigurationERKSt6vectorISt17reference_wrapperIS1_ESaIS6_EERKNS_3ipa4soft13IPAConfigInfoE T
_ZN9libcamera11SoftwareIspC1EPNS_15PipelineHandlerEPKNS_12CameraSensorEPNS_14ControlInfoMapE T
_ZN9libcamera11SoftwareIspC2EPNS_15PipelineHandlerEPKNS_12CameraSensorEPNS_14ControlInfoMapE T
_ZN9libcamera11SoftwareIspD0Ev T
_ZN9libcamera11SoftwareIspD1Ev T
_ZN9libcamera11SoftwareIspD2Ev T
_ZN9libcamera12CameraSensor22setEmbeddedDataEnabledEb T
_ZN9libcamera12CameraSensorD0Ev T
_ZN9libcamera12CameraSensorD1Ev T
_ZN9libcamera12CameraSensorD2Ev T
_ZN9libcamera12ControlValue3setENS_11ControlTypeEbPKvmm T
_ZN9libcamera12ControlValue4dataEv T
_ZN9libcamera12ControlValue7releaseEv T
_ZN9libcamera12ControlValue7reserveENS_11ControlTypeEbm T
_ZN9libcamera12ControlValueaSERKS0_ T
_ZN9libcamera12ControlValueC1ERKS0_ T
_ZN9libcamera12ControlValueC1Ev T
_ZN9libcamera12ControlValueC2ERKS0_ T
_ZN9libcamera12ControlValueC2Ev T
_ZN9libcamera12ControlValueD1Ev T
_ZN9libcamera12ControlValueD2Ev T
_ZN9libcamera12MappedBufferaSEOS0_ T
_ZN9libcamera12MappedBufferC1EOS0_ T
_ZN9libcamera12MappedBufferC1Ev T
_ZN9libcamera12MappedBufferC2EOS0_ T
_ZN9libcamera12MappedBufferC2Ev T
_ZN9libcamera12MappedBufferD1Ev T
_ZN9libcamera12MappedBufferD2Ev T
_ZN9libcamera12matrixInvertIdEEbNS_4SpanIKT_Lm18446744073709551615EEENS1_IS2_Lm18446744073709551615EEEjS5_NS1_IjLm18446744073709551615EEE W
_ZN9libcamera12matrixInvertIfEEbNS_4SpanIKT_Lm18446744073709551615EEENS1_IS2_Lm18446744073709551615EEEjS5_NS1_IjLm18446744073709551615EEE W
_ZN9libcamera12RkISP1Frames4findEj T
_ZN9libcamera12RkISP1Frames4findEPNS_11FrameBufferE T
_ZN9libcamera12RkISP1Frames4findEPNS_7RequestE T
_ZN9libcamera12RkISP1Frames5clearEv T
_ZN9libcamera12RkISP1Frames6createEPKNS_16RkISP1CameraDataEPNS_7RequestEb T
_ZN9libcamera12RkISP1Frames7destroyEj T
_ZN9libcamera12RkISP1FramesC1EPNS_15PipelineHandlerE T
_ZN9libcamera12RkISP1FramesC2EPNS_15PipelineHandlerE T
_ZN9libcamera12SimpleFrames4findEj T
_ZN9libcamera12SimpleFrames5clearEv T
_ZN9libcamera12SimpleFrames6createEPNS_7RequestEb T
_ZN9libcamera12SimpleFrames7destroyEj T
_ZN9libcamera13CameraManager3getESt17basic_string_viewIcSt11char_traitsIcEE T
_ZN9libcamera13CameraManager4stopEv T
_ZN9libcamera13CameraManager5self_E B 8
_ZN9libcamera13CameraManager5startEv T
_ZN9libcamera13CameraManager7Private12removeCameraESt10shared_ptrINS_6CameraEE T
_ZN9libcamera13CameraManager7Private20pipelineFactoryMatchEPKNS_26PipelineHandlerFactoryBaseE T
_ZN9libcamera13CameraManager7Private22createPipelineHandlersEv T
_ZN9libcamera13CameraManager7Private3runEv T
_ZN9libcamera13CameraManager7Private4initEv T
_ZN9libcamera13CameraManager7Private5startEv T
_ZN9libcamera13CameraManager7Private7cleanupEv T
_ZN9libcamera13CameraManager7Private9addCameraESt10shared_ptrINS_6CameraEE T
_ZN9libcamera13CameraManager7PrivateC1Ev T
_ZN9libcamera13CameraManager7PrivateC2Ev T
_ZN9libcamera13CameraManager7PrivateD0Ev W
_ZN9libcamera13CameraManager7PrivateD1Ev W
_ZN9libcamera13CameraManager7PrivateD2Ev W
_ZN9libcamera13CameraManager8version_B5cxx11E B 20
_ZN9libcamera13CameraManagerC1Ev T
_ZN9libcamera13CameraManagerC2Ev T
_ZN9libcamera13CameraManagerD0Ev T
_ZN9libcamera13CameraManagerD1Ev T
_ZN9libcamera13CameraManagerD2Ev T
_ZN9libcamera13ClockRecovery5resetEv T
_ZN9libcamera13ClockRecovery9addSampleEmm T
_ZN9libcamera13ClockRecovery9addSampleEv T
_ZN9libcamera13ClockRecovery9configureEjjjj T
_ZN9libcamera13ClockRecovery9getOutputEm T
_ZN9libcamera13ClockRecoveryC1Ev T
_ZN9libcamera13ClockRecoveryC2Ev T
_ZN9libcamera13DebugMetadata11moveEntriesERNS_11ControlListE T
_ZN9libcamera13DebugMetadata15enableByControlERKNS_11ControlListE T
_ZN9libcamera13DebugMetadata3setEjRKNS_12ControlValueE T
_ZN9libcamera13DebugMetadata6enableEb T
_ZN9libcamera13DebugMetadata9setParentEPS0_ T
_ZN9libcamera13IPCUnixSocket12dataNotifierEv T
_ZN9libcamera13IPCUnixSocket4bindENS_8UniqueFDE T
_ZN9libcamera13IPCUnixSocket4sendERKNS0_7PayloadE T
_ZN9libcamera13IPCUnixSocket5closeEv T
_ZN9libcamera13IPCUnixSocket6createEv T
_ZN9libcamera13IPCUnixSocket7receiveEPNS0_7PayloadE T
_ZN9libcamera13IPCUnixSocket8recvDataEPvmPij T
_ZN9libcamera13IPCUnixSocket8sendDataEPKvmPKij T
_ZN9libcamera13IPCUnixSocketC1Ev T
_ZN9libcamera13IPCUnixSocketC2Ev T
_ZN9libcamera13IPCUnixSocketD1Ev T
_ZN9libcamera13IPCUnixSocketD2Ev T
_ZN9libcamera13ISICameraData4initEv T
_ZN9libcamera13ISICameraData4pipeEv T
_ZN9libcamera13ISICameraDataD0Ev W
_ZN9libcamera13ISICameraDataD1Ev W
_ZN9libcamera13ISICameraDataD2Ev W
_ZN9libcamera13MediaPipeline4initEPNS_11MediaEntityESt17basic_string_viewIcSt11char_traitsIcEE T
_ZN9libcamera13MediaPipeline9configureEPNS_12CameraSensorEPNS_19V4L2SubdeviceFormatE T
_ZN9libcamera13MediaPipeline9initLinksEv T
_ZN9libcamera13StreamFormatsC1ERKSt3mapINS_11PixelFormatESt6vectorINS_9SizeRangeESaIS4_EESt4lessIS2_ESaISt4pairIKS2_S6_EEE T
_ZN9libcamera13StreamFormatsC1Ev T
_ZN9libcamera13StreamFormatsC2ERKSt3mapINS_11PixelFormatESt6vectorINS_9SizeRangeESaIS4_EESt4lessIS2_ESaISt4pairIKS2_S6_EEE T
_ZN9libcamera13StreamFormatsC2Ev T
_ZN9libcamera13UVCCameraData10addControlEjRKNS_11ControlInfoEPSt13unordered_mapIPKNS_9ControlIdES1_St4hashIS7_ESt8equal_toIS7_ESaISt4pairIKS7_S1_EEE T
_ZN9libcamera13UVCCameraData10generateIdEv T
_ZN9libcamera13UVCCameraData16imageBufferReadyEPNS_11FrameBufferE T
_ZN9libcamera13UVCCameraData4initEPNS_11MediaDeviceE T
_ZN9libcamera13UVCCameraDataD0Ev W
_ZN9libcamera13UVCCameraDataD1Ev W
_ZN9libcamera13UVCCameraDataD2Ev W
_ZN9libcamera13V4L2M2MDevice4openEv T
_ZN9libcamera13V4L2M2MDevice5closeEv T
_ZN9libcamera13V4L2M2MDeviceC1ERKNSt7__cxx1112basic_stringIcSt11char_traitsIcESaIcEEE T
_ZN9libcamera13V4L2M2MDeviceC2ERKNSt7__cxx1112basic_stringIcSt11char_traitsIcESaIcEEE T
_ZN9libcamera13V4L2M2MDeviceD1Ev T
_ZN9libcamera13V4L2M2MDeviceD2Ev T
_ZN9libcamera13V4L2Subdevice10getRoutingEPSt6vectorINS0_5RouteESaIS2_EENS0_6WhenceE T
_ZN9libcamera13V4L2Subdevice10setRoutingEPSt6vectorINS0_5RouteESaIS2_EENS0_6WhenceE T
_ZN9libcamera13V4L2Subdevice12enumPadCodesERKNS0_6StreamE T
_ZN9libcamera13V4L2Subdevice12enumPadSizesERKNS0_6StreamEj T
_ZN9libcamera13V4L2Subdevice12getSelectionERKNS0_6StreamEjPNS_9RectangleE T
_ZN9libcamera13V4L2Subdevice12setSelectionERKNS0_6StreamEjPNS_9RectangleE T
_ZN9libcamera13V4L2Subdevice14fromEntityNameEPKNS_11MediaDeviceERKNSt7__cxx1112basic_stringIcSt11char_traitsIcESaIcEEE T
_ZN9libcamera13V4L2Subdevice16getRoutingLegacyEPSt6vectorINS0_5RouteESaIS2_EENS0_6WhenceE T
_ZN9libcamera13V4L2Subdevice16setRoutingLegacyEPSt6vectorINS0_5RouteESaIS2_EENS0_6WhenceE T
_ZN9libcamera13V4L2Subdevice4openEv T
_ZN9libcamera13V4L2Subdevice5modelB5cxx11Ev T
_ZN9libcamera13V4L2Subdevice7formatsERKNS0_6StreamE T
_ZN9libcamera13V4L2Subdevice9getFormatERKNS0_6StreamEPNS_19V4L2SubdeviceFormatENS0_6WhenceE T
_ZN9libcamera13V4L2Subdevice9setFormatERKNS0_6StreamEPNS_19V4L2SubdeviceFormatENS0_6WhenceE T
_ZN9libcamera13V4L2SubdeviceC1EPKNS_11MediaEntityE T
_ZN9libcamera13V4L2SubdeviceC2EPKNS_11MediaEntityE T
_ZN9libcamera13V4L2SubdeviceD0Ev T
_ZN9libcamera13V4L2SubdeviceD1Ev T
_ZN9libcamera13V4L2SubdeviceD2Ev T
_ZN9libcamera13Vc4CameraData12platformStopEv T
_ZN9libcamera13Vc4CameraData13platformStartEv T
_ZN9libcamera13Vc4CameraData14frontendDeviceEv W
_ZN9libcamera13Vc4CameraData14setIspControlsERKNS_11ControlListE T
_ZN9libcamera13Vc4CameraData14tryRunPipelineEv T
_ZN9libcamera13Vc4CameraData15ispInputDequeueEPNS_11FrameBufferE T
_ZN9libcamera13Vc4CameraData15platformInitIpaERNS_3ipa3RPi10InitParamsE W
_ZN9libcamera13Vc4CameraData16ispOutputDequeueEPNS_11FrameBufferE T
_ZN9libcamera13Vc4CameraData16setCameraTimeoutEj T
_ZN9libcamera13Vc4CameraData17platformConfigureEPKNS_3RPi22RPiCameraConfigurationE T
_ZN9libcamera13Vc4CameraData18platformSetIspCropEjRKNS_9RectangleE W
_ZN9libcamera13Vc4CameraData18prepareIspCompleteERKNS_3ipa3RPi9BufferIdsEb T
_ZN9libcamera13Vc4CameraData19findMatchingBuffersERNS0_10BayerFrameERPNS_11FrameBufferE T
_ZN9libcamera13Vc4CameraData19platformFreeBuffersEv W
_ZN9libcamera13Vc4CameraData19unicamBufferDequeueEPNS_11FrameBufferE T
_ZN9libcamera13Vc4CameraData20platformConfigureIpaERNS_3ipa3RPi12ConfigParamsE T
_ZN9libcamera13Vc4CameraData20processStatsCompleteERKNS_3ipa3RPi9BufferIdsE T
_ZN9libcamera13Vc4CameraData25platformPipelineConfigureERKSt10unique_ptrINS_10YamlObjectESt14default_deleteIS2_EE T
_ZN9libcamera13Vc4CameraDataD0Ev W
_ZN9libcamera13Vc4CameraDataD1Ev W
_ZN9libcamera13Vc4CameraDataD2Ev W
_ZN9libcamera14ControlInfoMap2atEj T
_ZN9libcamera14ControlInfoMap4findEj T
_ZN9libcamera14ControlInfoMap8validateEv T
_ZN9libcamera14ControlInfoMapC1EOSt13unordered_mapIPKNS_9ControlIdENS_11ControlInfoESt4hashIS4_ESt8equal_toIS4_ESaISt4pairIKS4_S5_EEERKS1_IjS4_S6_IjES8_IjESaISA_IKjS4_EEE T
_ZN9libcamera14ControlInfoMapC1ESt16initializer_listISt4pairIKPKNS_9ControlIdENS_11ControlInfoEEERKSt13unordered_mapIjS5_St4hashIjESt8equal_toIjESaIS2_IKjS5_EEE T
_ZN9libcamera14ControlInfoMapC2EOSt13unordered_mapIPKNS_9ControlIdENS_11ControlInfoESt4hashIS4_ESt8equal_toIS4_ESaISt4pairIKS4_S5_EEERKS1_IjS4_S6_IjES8_IjESaISA_IKjS4_EEE T
_ZN9libcamera14ControlInfoMapC2ESt16initializer_listISt4pairIKPKNS_9ControlIdENS_11ControlInfoEEERKSt13unordered_mapIjS5_St4hashIjESt8equal_toIjESaIS2_IKjS5_EEE T
_ZN9libcamera14logCategoryISIEv T
_ZN9libcamera14logCategoryRPIEv T
_ZN9libcamera14logCategoryUVCEv T
_ZN9libcamera14PiSPCameraData10prepareCfeEv T
_ZN9libcamera14PiSPCameraData11configureBeERKSt8optionalINS_10ColorSpaceEE T
_ZN9libcamera14PiSPCameraData12configureCfeEv T
_ZN9libcamera14PiSPCameraData12platformStopEv T
_ZN9libcamera14PiSPCameraData13platformStartEv T
_ZN9libcamera14PiSPCameraData14beInputDequeueEPNS_11FrameBufferE T
_ZN9libcamera14PiSPCameraData14frontendDeviceEv W
_ZN9libcamera14PiSPCameraData14tryRunPipelineEv T
_ZN9libcamera14PiSPCameraData15beOutputDequeueEPNS_11FrameBufferE T
_ZN9libcamera14PiSPCameraData15platformInitIpaERNS_3ipa3RPi10InitParamsE T
_ZN9libcamera14PiSPCameraData16cfeBufferDequeueEPNS_11FrameBufferE T
_ZN9libcamera14PiSPCameraData16setCameraTimeoutEj T
_ZN9libcamera14PiSPCameraData17configureEntitiesENS_19V4L2SubdeviceFormatERS1_ T
_ZN9libcamera14PiSPCameraData17platformConfigureEPKNS_3RPi22RPiCameraConfigurationE T
_ZN9libcamera14PiSPCameraData18platformSetIspCropEjRKNS_9RectangleE T
_ZN9libcamera14PiSPCameraData18prepareIspCompleteERKNS_3ipa3RPi9BufferIdsEb T
_ZN9libcamera14PiSPCameraData19platformFreeBuffersEv T
_ZN9libcamera14PiSPCameraData20platformConfigureIpaERNS_3ipa3RPi12ConfigParamsE W
_ZN9libcamera14PiSPCameraData20processStatsCompleteERKNS_3ipa3RPi9BufferIdsE T
_ZN9libcamera14PiSPCameraData25calculateCscConfigurationERKNS_16V4L2DeviceFormatER18pisp_be_ccm_config T
_ZN9libcamera14PiSPCameraData25platformPipelineConfigureERKSt10unique_ptrINS_10YamlObjectESt14default_deleteIS2_EE T
_ZN9libcamera14PiSPCameraData6CfeJobD1Ev W
_ZN9libcamera14PiSPCameraData6CfeJobD2Ev W
_ZN9libcamera14PiSPCameraData9prepareBeEjb T
_ZN9libcamera14PiSPCameraDataC1EPNS_15PipelineHandlerERKN7libpisp11PiSPVariantE W
_ZN9libcamera14PiSPCameraDataC2EPNS_15PipelineHandlerERKN7libpisp11PiSPVariantE W
_ZN9libcamera14PiSPCameraDataD0Ev W
_ZN9libcamera14PiSPCameraDataD1Ev W
_ZN9libcamera14PiSPCameraDataD2Ev W
_ZN9libcamera14ProcessManager10sighandlerEv T
_ZN9libcamera14ProcessManager15registerProcessEPNS_7ProcessE T
_ZN9libcamera14ProcessManager5self_E B 8
_ZN9libcamera14ProcessManager8instanceEv T
_ZN9libcamera14ProcessManagerC1Ev T
_ZN9libcamera14ProcessManagerC2Ev T
_ZN9libcamera14ProcessManagerD1Ev T
_ZN9libcamera14ProcessManagerD2Ev T
_ZN9libcamera14RkISP1MainPathC1Ev T
_ZN9libcamera14RkISP1MainPathC2Ev T
_ZN9libcamera14RkISP1SelfPathC1Ev T
_ZN9libcamera14RkISP1SelfPathC2Ev T
_ZN9libcamera15BoundMethodArgsIbJPNS_6CameraEEE10invokePackEPNS_19BoundMethodPackBaseE W
_ZN9libcamera15BoundMethodArgsIiJEE10invokePackEPNS_19BoundMethodPackBaseE W
_ZN9libcamera15BoundMethodArgsIiJPNS_6CameraEPKNS_11ControlListEEE10invokePackEPNS_19BoundMethodPackBaseE W
_ZN9libcamera15BoundMethodArgsIiJPNS_6CameraEPNS_19CameraConfigurationEEE10invokePackEPNS_19BoundMethodPackBaseE W
_ZN9libcamera15BoundMethodArgsIiJPNS_6CameraEPNS_6StreamEPSt6vectorISt10unique_ptrINS_11FrameBufferESt14default_deleteIS7_EESaISA_EEEE10invokePackEPNS_19BoundMethodPackBaseE W
_ZN9libcamera15BoundMethodArgsIvJEE10invokePackEPNS_19BoundMethodPackBaseE W
_ZN9libcamera15BoundMethodArgsIvJjEE10invokePackEPNS_19BoundMethodPackBaseE W
_ZN9libcamera15BoundMethodArgsIvJjjEE10invokePackEPNS_19BoundMethodPackBaseE W
_ZN9libcamera15BoundMethodArgsIvJjjRKNS_11ControlListEEE10invokePackEPNS_19BoundMethodPackBaseE W
_ZN9libcamera15BoundMethodArgsIvJjPNS_11FrameBufferES2_NS_13DebayerParamsEEE10invokePackEPNS_19BoundMethodPackBaseE W
_ZN9libcamera15BoundMethodArgsIvJjRKNS_11ControlListEEE10invokePackEPNS_19BoundMethodPackBaseE W
_ZN9libcamera15BoundMethodArgsIvJPNS_11FrameBufferEEE10invokePackEPNS_19BoundMethodPackBaseE W
_ZN9libcamera15BoundMethodArgsIvJPNS_6CameraEEE10invokePackEPNS_19BoundMethodPackBaseE W
_ZN9libcamera15BoundMethodArgsIvJPNS_7RequestEEE10invokePackEPNS_19BoundMethodPackBaseE W
_ZN9libcamera15BoundMethodArgsIvJRKNS_10IPCMessageEEE10invokePackEPNS_19BoundMethodPackBaseE W
_ZN9libcamera15BoundMethodArgsIvJRKNS_11ControlListEEE10invokePackEPNS_19BoundMethodPackBaseE W
_ZN9libcamera15BoundMethodArgsIvJRKNS_11ControlListEjEE10invokePackEPNS_19BoundMethodPackBaseE W
_ZN9libcamera15BoundMethodArgsIvJRKNS_11ControlListEPNS_3ipa3RPi11StartResultEEE10invokePackEPNS_19BoundMethodPackBaseE W
_ZN9libcamera15BoundMethodArgsIvJRKNS_3ipa3RPi13PrepareParamsEEE10invokePackEPNS_19BoundMethodPackBaseE W
_ZN9libcamera15BoundMethodArgsIvJRKNS_3ipa3RPi13ProcessParamsEEE10invokePackEPNS_19BoundMethodPackBaseE W
_ZN9libcamera15BoundMethodArgsIvJRKNS_3ipa3RPi9BufferIdsEbEE10invokePackEPNS_19BoundMethodPackBaseE W
_ZN9libcamera15BoundMethodArgsIvJRKNS_3ipa3RPi9BufferIdsEEE10invokePackEPNS_19BoundMethodPackBaseE W
_ZN9libcamera15BoundMethodPackIbJPNS_6CameraEEED0Ev W
_ZN9libcamera15BoundMethodPackIbJPNS_6CameraEEED1Ev W
_ZN9libcamera15BoundMethodPackIbJPNS_6CameraEEED2Ev W
_ZN9libcamera15BoundMethodPackIiJEED0Ev W
_ZN9libcamera15BoundMethodPackIiJEED1Ev W
_ZN9libcamera15BoundMethodPackIiJEED2Ev W
_ZN9libcamera15BoundMethodPackIiJPNS_6CameraEPKNS_11ControlListEEED0Ev W
_ZN9libcamera15BoundMethodPackIiJPNS_6CameraEPKNS_11ControlListEEED1Ev W
_ZN9libcamera15BoundMethodPackIiJPNS_6CameraEPKNS_11ControlListEEED2Ev W
_ZN9libcamera15BoundMethodPackIiJPNS_6CameraEPNS_19CameraConfigurationEEED0Ev W
_ZN9libcamera15BoundMethodPackIiJPNS_6CameraEPNS_19CameraConfigurationEEED1Ev W
_ZN9libcamera15BoundMethodPackIiJPNS_6CameraEPNS_19CameraConfigurationEEED2Ev W
_ZN9libcamera15BoundMethodPackIiJPNS_6CameraEPNS_6StreamEPSt6vectorISt10unique_ptrINS_11FrameBufferESt14default_deleteIS7_EESaISA_EEEED0Ev W
_ZN9libcamera15BoundMethodPackIiJPNS_6CameraEPNS_6StreamEPSt6vectorISt10unique_ptrINS_11FrameBufferESt14default_deleteIS7_EESaISA_EEEED1Ev W
_ZN9libcamera15BoundMethodPackIiJPNS_6CameraEPNS_6StreamEPSt6vectorISt10unique_ptrINS_11FrameBufferESt14default_deleteIS7_EESaISA_EEEED2Ev W
_ZN9libcamera15BoundMethodPackIvJEED0Ev W
_ZN9libcamera15BoundMethodPackIvJEED1Ev W
_ZN9libcamera15BoundMethodPackIvJEED2Ev W
_ZN9libcamera15BoundMethodPackIvJjEED0Ev W
_ZN9libcamera15BoundMethodPackIvJjEED1Ev W
_ZN9libcamera15BoundMethodPackIvJjEED2Ev W
_ZN9libcamera15BoundMethodPackIvJjjEED0Ev W
_ZN9libcamera15BoundMethodPackIvJjjEED1Ev W
_ZN9libcamera15BoundMethodPackIvJjjEED2Ev W
_ZN9libcamera15BoundMethodPackIvJjjRKNS_11ControlListEEED0Ev W
_ZN9libcamera15BoundMethodPackIvJjjRKNS_11ControlListEEED1Ev W
_ZN9libcamera15BoundMethodPackIvJjjRKNS_11ControlListEEED2Ev W
_ZN9libcamera15BoundMethodPackIvJjPNS_11FrameBufferES2_NS_13DebayerParamsEEED0Ev W
_ZN9libcamera15BoundMethodPackIvJjPNS_11FrameBufferES2_NS_13DebayerParamsEEED1Ev W
_ZN9libcamera15BoundMethodPackIvJjPNS_11FrameBufferES2_NS_13DebayerParamsEEED2Ev W
_ZN9libcamera15BoundMethodPackIvJjRKNS_11ControlListEEED0Ev W
_ZN9libcamera15BoundMethodPackIvJjRKNS_11ControlListEEED1Ev W
_ZN9libcamera15BoundMethodPackIvJjRKNS_11ControlListEEED2Ev W
_ZN9libcamera15BoundMethodPackIvJPNS_11FrameBufferEEED0Ev W
_ZN9libcamera15BoundMethodPackIvJPNS_11FrameBufferEEED1Ev W
_ZN9libcamera15BoundMethodPackIvJPNS_11FrameBufferEEED2Ev W
_ZN9libcamera15BoundMethodPackIvJPNS_6CameraEEED0Ev W
_ZN9libcamera15BoundMethodPackIvJPNS_6CameraEEED1Ev W
_ZN9libcamera15BoundMethodPackIvJPNS_6CameraEEED2Ev W
_ZN9libcamera15BoundMethodPackIvJPNS_7RequestEEED0Ev W
_ZN9libcamera15BoundMethodPackIvJPNS_7RequestEEED1Ev W
_ZN9libcamera15BoundMethodPackIvJPNS_7RequestEEED2Ev W
_ZN9libcamera15BoundMethodPackIvJRKNS_10IPCMessageEEED0Ev W
_ZN9libcamera15BoundMethodPackIvJRKNS_10IPCMessageEEED1Ev W
_ZN9libcamera15BoundMethodPackIvJRKNS_10IPCMessageEEED2Ev W
_ZN9libcamera15BoundMethodPackIvJRKNS_11ControlListEEED0Ev W
_ZN9libcamera15BoundMethodPackIvJRKNS_11ControlListEEED1Ev W
_ZN9libcamera15BoundMethodPackIvJRKNS_11ControlListEEED2Ev W
_ZN9libcamera15BoundMethodPackIvJRKNS_11ControlListEjEED0Ev W
_ZN9libcamera15BoundMethodPackIvJRKNS_11ControlListEjEED1Ev W
_ZN9libcamera15BoundMethodPackIvJRKNS_11ControlListEjEED2Ev W
_ZN9libcamera15BoundMethodPackIvJRKNS_11ControlListEPNS_3ipa3RPi11StartResultEEED0Ev W
_ZN9libcamera15BoundMethodPackIvJRKNS_11ControlListEPNS_3ipa3RPi11StartResultEEED1Ev W
_ZN9libcamera15BoundMethodPackIvJRKNS_11ControlListEPNS_3ipa3RPi11StartResultEEED2Ev W
_ZN9libcamera15BoundMethodPackIvJRKNS_3ipa3RPi13PrepareParamsEEED0Ev W
_ZN9libcamera15BoundMethodPackIvJRKNS_3ipa3RPi13PrepareParamsEEED1Ev W
_ZN9libcamera15BoundMethodPackIvJRKNS_3ipa3RPi13PrepareParamsEEED2Ev W
_ZN9libcamera15BoundMethodPackIvJRKNS_3ipa3RPi13ProcessParamsEEED0Ev W
_ZN9libcamera15BoundMethodPackIvJRKNS_3ipa3RPi13ProcessParamsEEED1Ev W
_ZN9libcamera15BoundMethodPackIvJRKNS_3ipa3RPi13ProcessParamsEEED2Ev W
_ZN9libcamera15BoundMethodPackIvJRKNS_3ipa3RPi9BufferIdsEbEED0Ev W
_ZN9libcamera15BoundMethodPackIvJRKNS_3ipa3RPi9BufferIdsEbEED1Ev W
_ZN9libcamera15BoundMethodPackIvJRKNS_3ipa3RPi9BufferIdsEbEED2Ev W
_ZN9libcamera15BoundMethodPackIvJRKNS_3ipa3RPi9BufferIdsEEED0Ev W
_ZN9libcamera15BoundMethodPackIvJRKNS_3ipa3RPi9BufferIdsEEED1Ev W
_ZN9libcamera15BoundMethodPackIvJRKNS_3ipa3RPi9BufferIdsEEED2Ev W
_ZN9libcamera15CameraSensorRaw11getControlsERKSt6vectorIjSaIjEE T
_ZN9libcamera15CameraSensorRaw11setControlsEPNS_11ControlListE T
_ZN9libcamera15CameraSensorRaw12sensorDelaysEv T
_ZN9libcamera15CameraSensorRaw14initPropertiesEv T
_ZN9libcamera15CameraSensorRaw18applyConfigurationERKNS_19SensorConfigurationENS_9TransformEPNS_19V4L2SubdeviceFormatE T
_ZN9libcamera15CameraSensorRaw18setTestPatternModeENS_8controls5draft19TestPatternModeEnumE T
_ZN9libcamera15CameraSensorRaw20applyTestPatternModeENS_8controls5draft19TestPatternModeEnumE T
_ZN9libcamera15CameraSensorRaw20initStaticPropertiesEv T
_ZN9libcamera15CameraSensorRaw20initTestPatternModesEv T
_ZN9libcamera15CameraSensorRaw22setEmbeddedDataEnabledEb T
_ZN9libcamera15CameraSensorRaw4initEv T
_ZN9libcamera15CameraSensorRaw5matchEPNS_11MediaEntityE T
_ZN9libcamera15CameraSensorRaw6deviceEv W
_ZN9libcamera15CameraSensorRaw9focusLensEv W
_ZN9libcamera15CameraSensorRaw9setFormatEPNS_19V4L2SubdeviceFormatENS_9TransformE T
_ZN9libcamera15CameraSensorRawC1EPKNS_11MediaEntityE T
_ZN9libcamera15CameraSensorRawC2EPKNS_11MediaEntityE T
_ZN9libcamera15CameraSensorRawD0Ev T
_ZN9libcamera15CameraSensorRawD1Ev T
_ZN9libcamera15CameraSensorRawD2Ev T
_ZN9libcamera15DelayedControls13applyControlsEj T
_ZN9libcamera15DelayedControls3getEj T
_ZN9libcamera15DelayedControls4pushERKNS_11ControlListE T
_ZN9libcamera15DelayedControls5resetEv T
_ZN9libcamera15DelayedControlsC1EPNS_10V4L2DeviceERKSt13unordered_mapIjNS0_13ControlParamsESt4hashIjESt8equal_toIjESaISt4pairIKjS4_EEE T
_ZN9libcamera15DelayedControlsC2EPNS_10V4L2DeviceERKSt13unordered_mapIjNS0_13ControlParamsESt4hashIjESt8equal_toIjESaISt4pairIKjS4_EEE T
_ZN9libcamera15DmaBufAllocator12createBufferENSt7__cxx1112basic_stringIcSt11char_traitsIcESaIcEEERKSt6vectorIjSaIjEE T
_ZN9libcamera15DmaBufAllocator13allocFromHeapEPKcm T
_ZN9libcamera15DmaBufAllocator13exportBuffersEjRKSt6vectorIjSaIjEEPS1_ISt10unique_ptrINS_11FrameBufferESt14default_deleteIS7_EESaISA_EE T
_ZN9libcamera15DmaBufAllocator16allocFromUDmaBufEPKcm T
_ZN9libcamera15DmaBufAllocator5allocEPKcm T
_ZN9libcamera15DmaBufAllocatorC1ENS_5FlagsINS0_19DmaBufAllocatorFlagEEE T
_ZN9libcamera15DmaBufAllocatorC2ENS_5FlagsINS0_19DmaBufAllocatorFlagEEE T
_ZN9libcamera15DmaBufAllocatorD1Ev T
_ZN9libcamera15DmaBufAllocatorD2Ev T
_ZN9libcamera15logCategoryV4L2Ev T
_ZN9libcamera15PipelineHandler10disconnectEv T
_ZN9libcamera15PipelineHandler12queueRequestEPNS_7RequestE T
_ZN9libcamera15PipelineHandler13acquireDeviceEPNS_6CameraE T
_ZN9libcamera15PipelineHandler13cancelRequestEPNS_7RequestE T
_ZN9libcamera15PipelineHandler13releaseDeviceEPNS_6CameraE T
_ZN9libcamera15PipelineHandler14completeBufferEPNS_7RequestEPNS_11FrameBufferE T
_ZN9libcamera15PipelineHandler14doQueueRequestEPNS_7RequestE T
_ZN9libcamera15PipelineHandler14registerCameraESt10shared_ptrINS_6CameraEE T
_ZN9libcamera15PipelineHandler15completeRequestEPNS_7RequestE T
_ZN9libcamera15PipelineHandler15doQueueRequestsEv T
_ZN9libcamera15PipelineHandler15registerRequestEPNS_7RequestE T
_ZN9libcamera15PipelineHandler18acquireMediaDeviceEPNS_16DeviceEnumeratorERKNS_11DeviceMatchE T
_ZN9libcamera15PipelineHandler18hotplugMediaDeviceEPNS_11MediaDeviceE T
_ZN9libcamera15PipelineHandler18unlockMediaDevicesEv T
_ZN9libcamera15PipelineHandler23mediaDeviceDisconnectedEPNS_11MediaDeviceE T
_ZN9libcamera15PipelineHandler4stopEPNS_6CameraE T
_ZN9libcamera15PipelineHandler7acquireEPNS_6CameraE T
_ZN9libcamera15PipelineHandler7releaseEPNS_6CameraE T
_ZN9libcamera15PipelineHandlerC1EPNS_13CameraManagerE T
_ZN9libcamera15PipelineHandlerC2EPNS_13CameraManagerE T
_ZN9libcamera15PipelineHandlerD0Ev T
_ZN9libcamera15PipelineHandlerD1Ev T
_ZN9libcamera15PipelineHandlerD2Ev T
_ZN9libcamera15PixelFormatInfo4infoERKNS_11PixelFormatE T
_ZN9libcamera15PixelFormatInfo4infoERKNS_15V4L2PixelFormatE T
_ZN9libcamera15PixelFormatInfo4infoERKNSt7__cxx1112basic_stringIcSt11char_traitsIcESaIcEEE T
_ZN9libcamera15PixelFormatInfoC1ERKS0_ W
_ZN9libcamera15PixelFormatInfoC2ERKS0_ W
_ZN9libcamera15PixelFormatInfoD1Ev W
_ZN9libcamera15PixelFormatInfoD2Ev W
_ZN9libcamera15SharedMemObjectIN7libpisp7BackEndEvED0Ev W
_ZN9libcamera15SharedMemObjectIN7libpisp7BackEndEvED1Ev W
_ZN9libcamera15SharedMemObjectIN7libpisp7BackEndEvED2Ev W
_ZN9libcamera15SharedMemObjectIN7libpisp8FrontEndEvED0Ev W
_ZN9libcamera15SharedMemObjectIN7libpisp8FrontEndEvED1Ev W
_ZN9libcamera15SharedMemObjectIN7libpisp8FrontEndEvED2Ev W
_ZN9libcamera15SharedMemObjectINS_10SwIspStatsEvED0Ev W
_ZN9libcamera15SharedMemObjectINS_10SwIspStatsEvED1Ev W
_ZN9libcamera15SharedMemObjectINS_10SwIspStatsEvED2Ev W
_ZN9libcamera15SharedMemObjectINS_13DebayerParamsEvED0Ev W
_ZN9libcamera15SharedMemObjectINS_13DebayerParamsEvED1Ev W
_ZN9libcamera15SharedMemObjectINS_13DebayerParamsEvED2Ev W
_ZN9libcamera15V4L2BufferCache3getERKNS_11FrameBufferE T
_ZN9libcamera15V4L2BufferCache3putEj T
_ZN9libcamera15V4L2BufferCache5EntryC1EbmRKNS_11FrameBufferE T
_ZN9libcamera15V4L2BufferCache5EntryC1Ev T
_ZN9libcamera15V4L2BufferCache5EntryC2EbmRKNS_11FrameBufferE T
_ZN9libcamera15V4L2BufferCache5EntryC2Ev T
_ZN9libcamera15V4L2BufferCacheC1Ej T
_ZN9libcamera15V4L2BufferCacheC1ERKSt6vectorISt10unique_ptrINS_11FrameBufferESt14default_deleteIS3_EESaIS6_EE T
_ZN9libcamera15V4L2BufferCacheC2Ej T
_ZN9libcamera15V4L2BufferCacheC2ERKSt6vectorISt10unique_ptrINS_11FrameBufferESt14default_deleteIS3_EESaIS6_EE T
_ZN9libcamera15V4L2BufferCacheD1Ev T
_ZN9libcamera15V4L2BufferCacheD2Ev T
_ZN9libcamera15V4L2PixelFormat15fromPixelFormatERKNS_11PixelFormatE T
_ZN9libcamera15V4L2VideoDevice11initFormatsEv T
_ZN9libcamera15V4L2VideoDevice11queueBufferEPNS_11FrameBufferE T
_ZN9libcamera15V4L2VideoDevice12createBufferEj T
_ZN9libcamera15V4L2VideoDevice12getSelectionEjPNS_9RectangleE T
_ZN9libcamera15V4L2VideoDevice12setSelectionEjPNS_9RectangleE T
_ZN9libcamera15V4L2VideoDevice13createBuffersEjPSt6vectorISt10unique_ptrINS_11FrameBufferESt14default_deleteIS3_EESaIS6_EE T
_ZN9libcamera15V4L2VideoDevice13dequeueBufferEv T
_ZN9libcamera15V4L2VideoDevice13exportBuffersEjPSt6vectorISt10unique_ptrINS_11FrameBufferESt14default_deleteIS3_EESaIS6_EE T
_ZN9libcamera15V4L2VideoDevice13getFormatMetaEPNS_16V4L2DeviceFormatE T
_ZN9libcamera15V4L2VideoDevice13importBuffersEj T
_ZN9libcamera15V4L2VideoDevice13queueToDeviceEPNS_11FrameBufferE T
_ZN9libcamera15V4L2VideoDevice14exportDmabufFdEjj T
_ZN9libcamera15V4L2VideoDevice14fromEntityNameEPKNS_11MediaDeviceERKNSt7__cxx1112basic_stringIcSt11char_traitsIcESaIcEEE T
_ZN9libcamera15V4L2VideoDevice14releaseBuffersEv T
_ZN9libcamera15V4L2VideoDevice14requestBuffersEj11v4l2_memory T
_ZN9libcamera15V4L2VideoDevice15allocateBuffersEjPSt6vectorISt10unique_ptrINS_11FrameBufferESt14default_deleteIS3_EESaIS6_EE T
_ZN9libcamera15V4L2VideoDevice15bufferAvailableEv T
_ZN9libcamera15V4L2VideoDevice15watchdogExpiredEv T
_ZN9libcamera15V4L2VideoDevice16enumPixelformatsEj T
_ZN9libcamera15V4L2VideoDevice16trySetFormatMetaEPNS_16V4L2DeviceFormatEb T
_ZN9libcamera15V4L2VideoDevice17setDequeueTimeoutENS_5utils8DurationE T
_ZN9libcamera15V4L2VideoDevice19getFormatMultiplaneEPNS_16V4L2DeviceFormatE T
_ZN9libcamera15V4L2VideoDevice20getFormatSingleplaneEPNS_16V4L2DeviceFormatE T
_ZN9libcamera15V4L2VideoDevice22trySetFormatMultiplaneEPNS_16V4L2DeviceFormatEb T
_ZN9libcamera15V4L2VideoDevice23trySetFormatSingleplaneEPNS_16V4L2DeviceFormatEb T
_ZN9libcamera15V4L2VideoDevice4openENS_8SharedFDE13v4l2_buf_type T
_ZN9libcamera15V4L2VideoDevice4openEv T
_ZN9libcamera15V4L2VideoDevice5closeEv T
_ZN9libcamera15V4L2VideoDevice7formatsEj T
_ZN9libcamera15V4L2VideoDevice8streamOnEv T
_ZN9libcamera15V4L2VideoDevice9enumSizesENS_15V4L2PixelFormatE T
_ZN9libcamera15V4L2VideoDevice9getFormatEPNS_16V4L2DeviceFormatE T
_ZN9libcamera15V4L2VideoDevice9setFormatEPNS_16V4L2DeviceFormatE T
_ZN9libcamera15V4L2VideoDevice9streamOffEv T
_ZN9libcamera15V4L2VideoDevice9tryFormatEPNS_16V4L2DeviceFormatE T
_ZN9libcamera15V4L2VideoDeviceC1EPKNS_11MediaEntityE T
_ZN9libcamera15V4L2VideoDeviceC1ERKNSt7__cxx1112basic_stringIcSt11char_traitsIcESaIcEEE T
_ZN9libcamera15V4L2VideoDeviceC2EPKNS_11MediaEntityE T
_ZN9libcamera15V4L2VideoDeviceC2ERKNSt7__cxx1112basic_stringIcSt11char_traitsIcESaIcEEE T
_ZN9libcamera15V4L2VideoDeviceD0Ev T
_ZN9libcamera15V4L2VideoDeviceD1Ev T
_ZN9libcamera15V4L2VideoDeviceD2Ev T
_ZN9libcamera16ByteStreamBuffer11setOverflowEv T
_ZN9libcamera16ByteStreamBuffer4readEmm T
_ZN9libcamera16ByteStreamBuffer4readEPhm T
_ZN9libcamera16ByteStreamBuffer4skipEm T
_ZN9libcamera16ByteStreamBuffer5writeEPKhm T
_ZN9libcamera16ByteStreamBuffer8carveOutEm T
_ZN9libcamera16ByteStreamBufferaSEOS0_ T
_ZN9libcamera16ByteStreamBufferC1EOS0_ T
_ZN9libcamera16ByteStreamBufferC1EPhm T
_ZN9libcamera16ByteStreamBufferC1EPKhm T
_ZN9libcamera16ByteStreamBufferC2EOS0_ T
_ZN9libcamera16ByteStreamBufferC2EPhm T
_ZN9libcamera16ByteStreamBufferC2EPKhm T
_ZN9libcamera16ConverterFactoryINS_16V4L2M2MConverterEED0Ev W
_ZN9libcamera16ConverterFactoryINS_16V4L2M2MConverterEED1Ev W
_ZN9libcamera16ConverterFactoryINS_16V4L2M2MConverterEED2Ev W
_ZN9libcamera16DeviceEnumerator12createDeviceERKNSt7__cxx1112basic_stringIcSt11char_traitsIcESaIcEEE T
_ZN9libcamera16DeviceEnumerator12removeDeviceERKNSt7__cxx1112basic_stringIcSt11char_traitsIcESaIcEEE T
_ZN9libcamera16DeviceEnumerator6createEv T
_ZN9libcamera16DeviceEnumerator6searchERKNS_11DeviceMatchE T
_ZN9libcamera16DeviceEnumerator9addDeviceESt10unique_ptrINS_11MediaDeviceESt14default_deleteIS2_EE T
_ZN9libcamera16DeviceEnumeratorD0Ev T
_ZN9libcamera16DeviceEnumeratorD1Ev T
_ZN9libcamera16DeviceEnumeratorD2Ev T
_ZN9libcamera16logCategorySysFsEv T
_ZN9libcamera16RkISP1CameraData13metadataReadyEjRKNS_11ControlListE T
_ZN9libcamera16RkISP1CameraData14paramsComputedEjj T
_ZN9libcamera16RkISP1CameraData17setSensorControlsEjRKNS_11ControlListE T
_ZN9libcamera16RkISP1CameraData4pipeEv T
_ZN9libcamera16RkISP1CameraData7loadIPAEj T
_ZN9libcamera16RkISP1CameraDataD0Ev W
_ZN9libcamera16RkISP1CameraDataD1Ev W
_ZN9libcamera16RkISP1CameraDataD2Ev W
_ZN9libcamera16SimpleCameraData10setupLinksEv T
_ZN9libcamera16SimpleCameraData11tryPipelineEjRKNS_4SizeE T
_ZN9libcamera16SimpleCameraData12setupFormatsEPNS_19V4L2SubdeviceFormatENS_13V4L2Subdevice6WhenceENS_9TransformE T
_ZN9libcamera16SimpleCameraData13ispStatsReadyEjj T
_ZN9libcamera16SimpleCameraData13metadataReadyEjRKNS_11ControlListE T
_ZN9libcamera16SimpleCameraData16imageBufferReadyEPNS_11FrameBufferE T
_ZN9libcamera16SimpleCameraData16routedSourcePadsEPNS_8MediaPadE T
_ZN9libcamera16SimpleCameraData17setSensorControlsERKNS_11ControlListE T
_ZN9libcamera16SimpleCameraData18tryCompleteRequestEPNS_7RequestE T
_ZN9libcamera16SimpleCameraData19conversionInputDoneEPNS_11FrameBufferE T
_ZN9libcamera16SimpleCameraData20conversionOutputDoneEPNS_11FrameBufferE T
_ZN9libcamera16SimpleCameraData23clearIncompleteRequestsEv T
_ZN9libcamera16SimpleCameraData4initEv T
_ZN9libcamera16SimpleCameraData4pipeEv T
_ZN9libcamera16SimpleCameraDataC1EPNS_21SimplePipelineHandlerEjPNS_11MediaEntityE T
_ZN9libcamera16SimpleCameraDataC2EPNS_21SimplePipelineHandlerEjPNS_11MediaEntityE T
_ZN9libcamera16SimpleCameraDataD0Ev W
_ZN9libcamera16SimpleCameraDataD1Ev W
_ZN9libcamera16SimpleCameraDataD2Ev W
_ZN9libcamera16V4L2M2MConverter11adjustSizesERKNS_4SizeERKSt6vectorINS_9SizeRangeESaIS5_EENS_9Converter9AlignmentE T
_ZN9libcamera16V4L2M2MConverter12queueBuffersEPNS_11FrameBufferERKSt3mapIPKNS_6StreamES2_St4lessIS6_ESaISt4pairIKS6_S2_EEE T
_ZN9libcamera16V4L2M2MConverter12setInputCropEPKNS_6StreamEPNS_9RectangleE T
_ZN9libcamera16V4L2M2MConverter13exportBuffersEPKNS_6StreamEjPSt6vectorISt10unique_ptrINS_11FrameBufferESt14default_deleteIS6_EESaIS9_EE T
_ZN9libcamera16V4L2M2MConverter13V4L2M2MStream12queueBuffersEPNS_11FrameBufferES3_ T
_ZN9libcamera16V4L2M2MConverter13V4L2M2MStream13exportBuffersEjPSt6vectorISt10unique_ptrINS_11FrameBufferESt14default_deleteIS4_EESaIS7_EE T
_ZN9libcamera16V4L2M2MConverter13V4L2M2MStream15inputCropBoundsEv T
_ZN9libcamera16V4L2M2MConverter13V4L2M2MStream17getInputSelectionEjPNS_9RectangleE T
_ZN9libcamera16V4L2M2MConverter13V4L2M2MStream17outputBufferReadyEPNS_11FrameBufferE T
_ZN9libcamera16V4L2M2MConverter13V4L2M2MStream17setInputSelectionEjPNS_9RectangleE T
_ZN9libcamera16V4L2M2MConverter13V4L2M2MStream18captureBufferReadyEPNS_11FrameBufferE T
_ZN9libcamera16V4L2M2MConverter13V4L2M2MStream4stopEv T
_ZN9libcamera16V4L2M2MConverter13V4L2M2MStream5startEv T
_ZN9libcamera16V4L2M2MConverter13V4L2M2MStream9configureERKNS_19StreamConfigurationES4_ T
_ZN9libcamera16V4L2M2MConverter13V4L2M2MStreamC1EPS0_PKNS_6StreamE T
_ZN9libcamera16V4L2M2MConverter13V4L2M2MStreamC2EPS0_PKNS_6StreamE T
_ZN9libcamera16V4L2M2MConverter13V4L2M2MStreamD0Ev W
_ZN9libcamera16V4L2M2MConverter13V4L2M2MStreamD1Ev W
_ZN9libcamera16V4L2M2MConverter13V4L2M2MStreamD2Ev W
_ZN9libcamera16V4L2M2MConverter14validateOutputEPNS_19StreamConfigurationEPbNS_9Converter9AlignmentE T
_ZN9libcamera16V4L2M2MConverter15adjustInputSizeERKNS_11PixelFormatERKNS_4SizeENS_9Converter9AlignmentE T
_ZN9libcamera16V4L2M2MConverter15inputCropBoundsEPKNS_6StreamE T
_ZN9libcamera16V4L2M2MConverter15inputCropBoundsEv W
_ZN9libcamera16V4L2M2MConverter16adjustOutputSizeERKNS_11PixelFormatERKNS_4SizeENS_9Converter9AlignmentE T
_ZN9libcamera16V4L2M2MConverter17loadConfigurationERKNSt7__cxx1112basic_stringIcSt11char_traitsIcESaIcEEE W
_ZN9libcamera16V4L2M2MConverter18strideAndFrameSizeERKNS_11PixelFormatERKNS_4SizeE T
_ZN9libcamera16V4L2M2MConverter4stopEv T
_ZN9libcamera16V4L2M2MConverter5sizesERKNS_4SizeE T
_ZN9libcamera16V4L2M2MConverter5startEv T
_ZN9libcamera16V4L2M2MConverter7formatsENS_11PixelFormatE T
_ZN9libcamera16V4L2M2MConverter9configureERKNS_19StreamConfigurationERKSt6vectorISt17reference_wrapperIS1_ESaIS6_EE T
_ZN9libcamera16V4L2M2MConverterC1EPNS_11MediaDeviceE T
_ZN9libcamera16V4L2M2MConverterC2EPNS_11MediaDeviceE T
_ZN9libcamera16V4L2M2MConverterD0Ev W
_ZN9libcamera16V4L2M2MConverterD1Ev W
_ZN9libcamera16V4L2M2MConverterD2Ev W
_ZN9libcamera17BoundMethodMemberINS_10DebayerCpuEvJjPNS_11FrameBufferES3_NS_13DebayerParamsEEE6invokeEjS3_S3_S4_ W
_ZN9libcamera17BoundMethodMemberINS_10DebayerCpuEvJjPNS_11FrameBufferES3_NS_13DebayerParamsEEE8activateEjS3_S3_S4_b W
_ZN9libcamera17BoundMethodMemberINS_10DebayerCpuEvJjPNS_11FrameBufferES3_NS_13DebayerParamsEEED0Ev W
_ZN9libcamera17BoundMethodMemberINS_10DebayerCpuEvJjPNS_11FrameBufferES3_NS_13DebayerParamsEEED1Ev W
_ZN9libcamera17BoundMethodMemberINS_10DebayerCpuEvJjPNS_11FrameBufferES3_NS_13DebayerParamsEEED2Ev W
_ZN9libcamera17BoundMethodMemberINS_10V4L2DeviceEvJEE6invokeEv W
_ZN9libcamera17BoundMethodMemberINS_10V4L2DeviceEvJEE8activateEb W
_ZN9libcamera17BoundMethodMemberINS_10V4L2DeviceEvJEED0Ev W
_ZN9libcamera17BoundMethodMemberINS_10V4L2DeviceEvJEED1Ev W
_ZN9libcamera17BoundMethodMemberINS_10V4L2DeviceEvJEED2Ev W
_ZN9libcamera17BoundMethodMemberINS_11SoftwareIspEvJEE6invokeEv W
_ZN9libcamera17BoundMethodMemberINS_11SoftwareIspEvJEE8activateEb W
_ZN9libcamera17BoundMethodMemberINS_11SoftwareIspEvJEED0Ev W
_ZN9libcamera17BoundMethodMemberINS_11SoftwareIspEvJEED1Ev W
_ZN9libcamera17BoundMethodMemberINS_11SoftwareIspEvJEED2Ev W
_ZN9libcamera17BoundMethodMemberINS_11SoftwareIspEvJjjEE6invokeEjj W
_ZN9libcamera17BoundMethodMemberINS_11SoftwareIspEvJjjEE8activateEjjb W
_ZN9libcamera17BoundMethodMemberINS_11SoftwareIspEvJjjEED0Ev W
_ZN9libcamera17BoundMethodMemberINS_11SoftwareIspEvJjjEED1Ev W
_ZN9libcamera17BoundMethodMemberINS_11SoftwareIspEvJjjEED2Ev W
_ZN9libcamera17BoundMethodMemberINS_11SoftwareIspEvJPNS_11FrameBufferEEE6invokeES3_ W
_ZN9libcamera17BoundMethodMemberINS_11SoftwareIspEvJPNS_11FrameBufferEEE8activateES3_b W
_ZN9libcamera17BoundMethodMemberINS_11SoftwareIspEvJPNS_11FrameBufferEEED0Ev W
_ZN9libcamera17BoundMethodMemberINS_11SoftwareIspEvJPNS_11FrameBufferEEED1Ev W
_ZN9libcamera17BoundMethodMemberINS_11SoftwareIspEvJPNS_11FrameBufferEEED2Ev W
_ZN9libcamera17BoundMethodMemberINS_11SoftwareIspEvJRKNS_11ControlListEEE6invokeES4_ W
_ZN9libcamera17BoundMethodMemberINS_11SoftwareIspEvJRKNS_11ControlListEEE8activateES4_b W
_ZN9libcamera17BoundMethodMemberINS_11SoftwareIspEvJRKNS_11ControlListEEED0Ev W
_ZN9libcamera17BoundMethodMemberINS_11SoftwareIspEvJRKNS_11ControlListEEED1Ev W
_ZN9libcamera17BoundMethodMemberINS_11SoftwareIspEvJRKNS_11ControlListEEED2Ev W
_ZN9libcamera17BoundMethodMemberINS_13CameraManager7PrivateEvJEE6invokeEv W
_ZN9libcamera17BoundMethodMemberINS_13CameraManager7PrivateEvJEE8activateEb W
_ZN9libcamera17BoundMethodMemberINS_13CameraManager7PrivateEvJEED0Ev W
_ZN9libcamera17BoundMethodMemberINS_13CameraManager7PrivateEvJEED1Ev W
_ZN9libcamera17BoundMethodMemberINS_13CameraManager7PrivateEvJEED2Ev W
_ZN9libcamera17BoundMethodMemberINS_13IPCUnixSocketEvJEE6invokeEv W
_ZN9libcamera17BoundMethodMemberINS_13IPCUnixSocketEvJEE8activateEb W
_ZN9libcamera17BoundMethodMemberINS_13IPCUnixSocketEvJEED0Ev W
_ZN9libcamera17BoundMethodMemberINS_13IPCUnixSocketEvJEED1Ev W
_ZN9libcamera17BoundMethodMemberINS_13IPCUnixSocketEvJEED2Ev W
_ZN9libcamera17BoundMethodMemberINS_13UVCCameraDataEvJPNS_11FrameBufferEEE6invokeES3_ W
_ZN9libcamera17BoundMethodMemberINS_13UVCCameraDataEvJPNS_11FrameBufferEEE8activateES3_b W
_ZN9libcamera17BoundMethodMemberINS_13UVCCameraDataEvJPNS_11FrameBufferEEED0Ev W
_ZN9libcamera17BoundMethodMemberINS_13UVCCameraDataEvJPNS_11FrameBufferEEED1Ev W
_ZN9libcamera17BoundMethodMemberINS_13UVCCameraDataEvJPNS_11FrameBufferEEED2Ev W
_ZN9libcamera17BoundMethodMemberINS_13Vc4CameraDataEvJjEE6invokeEj W
_ZN9libcamera17BoundMethodMemberINS_13Vc4CameraDataEvJjEE8activateEjb W
_ZN9libcamera17BoundMethodMemberINS_13Vc4CameraDataEvJjEED0Ev W
_ZN9libcamera17BoundMethodMemberINS_13Vc4CameraDataEvJjEED1Ev W
_ZN9libcamera17BoundMethodMemberINS_13Vc4CameraDataEvJjEED2Ev W
_ZN9libcamera17BoundMethodMemberINS_13Vc4CameraDataEvJPNS_11FrameBufferEEE6invokeES3_ W
_ZN9libcamera17BoundMethodMemberINS_13Vc4CameraDataEvJPNS_11FrameBufferEEE8activateES3_b W
_ZN9libcamera17BoundMethodMemberINS_13Vc4CameraDataEvJPNS_11FrameBufferEEED0Ev W
_ZN9libcamera17BoundMethodMemberINS_13Vc4CameraDataEvJPNS_11FrameBufferEEED1Ev W
_ZN9libcamera17BoundMethodMemberINS_13Vc4CameraDataEvJPNS_11FrameBufferEEED2Ev W
_ZN9libcamera17BoundMethodMemberINS_13Vc4CameraDataEvJRKNS_11ControlListEEE6invokeES4_ W
_ZN9libcamera17BoundMethodMemberINS_13Vc4CameraDataEvJRKNS_11ControlListEEE8activateES4_b W
_ZN9libcamera17BoundMethodMemberINS_13Vc4CameraDataEvJRKNS_11ControlListEEED0Ev W
_ZN9libcamera17BoundMethodMemberINS_13Vc4CameraDataEvJRKNS_11ControlListEEED1Ev W
_ZN9libcamera17BoundMethodMemberINS_13Vc4CameraDataEvJRKNS_11ControlListEEED2Ev W
_ZN9libcamera17BoundMethodMemberINS_13Vc4CameraDataEvJRKNS_3ipa3RPi9BufferIdsEbEE6invokeES6_b W
_ZN9libcamera17BoundMethodMemberINS_13Vc4CameraDataEvJRKNS_3ipa3RPi9BufferIdsEbEE8activateES6_bb W
_ZN9libcamera17BoundMethodMemberINS_13Vc4CameraDataEvJRKNS_3ipa3RPi9BufferIdsEbEED0Ev W
_ZN9libcamera17BoundMethodMemberINS_13Vc4CameraDataEvJRKNS_3ipa3RPi9BufferIdsEbEED1Ev W
_ZN9libcamera17BoundMethodMemberINS_13Vc4CameraDataEvJRKNS_3ipa3RPi9BufferIdsEbEED2Ev W
_ZN9libcamera17BoundMethodMemberINS_13Vc4CameraDataEvJRKNS_3ipa3RPi9BufferIdsEEE6invokeES6_ W
_ZN9libcamera17BoundMethodMemberINS_13Vc4CameraDataEvJRKNS_3ipa3RPi9BufferIdsEEE8activateES6_b W
_ZN9libcamera17BoundMethodMemberINS_13Vc4CameraDataEvJRKNS_3ipa3RPi9BufferIdsEEED0Ev W
_ZN9libcamera17BoundMethodMemberINS_13Vc4CameraDataEvJRKNS_3ipa3RPi9BufferIdsEEED1Ev W
_ZN9libcamera17BoundMethodMemberINS_13Vc4CameraDataEvJRKNS_3ipa3RPi9BufferIdsEEED2Ev W
_ZN9libcamera17BoundMethodMemberINS_14PiSPCameraDataEvJjEE6invokeEj W
_ZN9libcamera17BoundMethodMemberINS_14PiSPCameraDataEvJjEE8activateEjb W
_ZN9libcamera17BoundMethodMemberINS_14PiSPCameraDataEvJjEED0Ev W
_ZN9libcamera17BoundMethodMemberINS_14PiSPCameraDataEvJjEED1Ev W
_ZN9libcamera17BoundMethodMemberINS_14PiSPCameraDataEvJjEED2Ev W
_ZN9libcamera17BoundMethodMemberINS_14PiSPCameraDataEvJPNS_11FrameBufferEEE6invokeES3_ W
_ZN9libcamera17BoundMethodMemberINS_14PiSPCameraDataEvJPNS_11FrameBufferEEE8activateES3_b W
_ZN9libcamera17BoundMethodMemberINS_14PiSPCameraDataEvJPNS_11FrameBufferEEED0Ev W
_ZN9libcamera17BoundMethodMemberINS_14PiSPCameraDataEvJPNS_11FrameBufferEEED1Ev W
_ZN9libcamera17BoundMethodMemberINS_14PiSPCameraDataEvJPNS_11FrameBufferEEED2Ev W
_ZN9libcamera17BoundMethodMemberINS_14PiSPCameraDataEvJRKNS_3ipa3RPi9BufferIdsEbEE6invokeES6_b W
_ZN9libcamera17BoundMethodMemberINS_14PiSPCameraDataEvJRKNS_3ipa3RPi9BufferIdsEbEE8activateES6_bb W
_ZN9libcamera17BoundMethodMemberINS_14PiSPCameraDataEvJRKNS_3ipa3RPi9BufferIdsEbEED0Ev W
_ZN9libcamera17BoundMethodMemberINS_14PiSPCameraDataEvJRKNS_3ipa3RPi9BufferIdsEbEED1Ev W
_ZN9libcamera17BoundMethodMemberINS_14PiSPCameraDataEvJRKNS_3ipa3RPi9BufferIdsEbEED2Ev W
_ZN9libcamera17BoundMethodMemberINS_14PiSPCameraDataEvJRKNS_3ipa3RPi9BufferIdsEEE6invokeES6_ W
_ZN9libcamera17BoundMethodMemberINS_14PiSPCameraDataEvJRKNS_3ipa3RPi9BufferIdsEEE8activateES6_b W
_ZN9libcamera17BoundMethodMemberINS_14PiSPCameraDataEvJRKNS_3ipa3RPi9BufferIdsEEED0Ev W
_ZN9libcamera17BoundMethodMemberINS_14PiSPCameraDataEvJRKNS_3ipa3RPi9BufferIdsEEED1Ev W
_ZN9libcamera17BoundMethodMemberINS_14PiSPCameraDataEvJRKNS_3ipa3RPi9BufferIdsEEED2Ev W
_ZN9libcamera17BoundMethodMemberINS_14ProcessManagerEvJEE6invokeEv W
_ZN9libcamera17BoundMethodMemberINS_14ProcessManagerEvJEE8activateEb W
_ZN9libcamera17BoundMethodMemberINS_14ProcessManagerEvJEED0Ev W
_ZN9libcamera17BoundMethodMemberINS_14ProcessManagerEvJEED1Ev W
_ZN9libcamera17BoundMethodMemberINS_14ProcessManagerEvJEED2Ev W
_ZN9libcamera17BoundMethodMemberINS_15DelayedControlsEvJjEE6invokeEj W
_ZN9libcamera17BoundMethodMemberINS_15DelayedControlsEvJjEE8activateEjb W
_ZN9libcamera17BoundMethodMemberINS_15DelayedControlsEvJjEED0Ev W
_ZN9libcamera17BoundMethodMemberINS_15DelayedControlsEvJjEED1Ev W
_ZN9libcamera17BoundMethodMemberINS_15DelayedControlsEvJjEED2Ev W
_ZN9libcamera17BoundMethodMemberINS_15PipelineHandlerEbJPNS_6CameraEEE6invokeES3_ W
_ZN9libcamera17BoundMethodMemberINS_15PipelineHandlerEbJPNS_6CameraEEE8activateES3_b W
_ZN9libcamera17BoundMethodMemberINS_15PipelineHandlerEbJPNS_6CameraEEED0Ev W
_ZN9libcamera17BoundMethodMemberINS_15PipelineHandlerEbJPNS_6CameraEEED1Ev W
_ZN9libcamera17BoundMethodMemberINS_15PipelineHandlerEbJPNS_6CameraEEED2Ev W
_ZN9libcamera17BoundMethodMemberINS_15PipelineHandlerEiJPNS_6CameraEPKNS_11ControlListEEE6invokeES3_S6_ W
_ZN9libcamera17BoundMethodMemberINS_15PipelineHandlerEiJPNS_6CameraEPKNS_11ControlListEEE8activateES3_S6_b W
_ZN9libcamera17BoundMethodMemberINS_15PipelineHandlerEiJPNS_6CameraEPKNS_11ControlListEEED0Ev W
_ZN9libcamera17BoundMethodMemberINS_15PipelineHandlerEiJPNS_6CameraEPKNS_11ControlListEEED1Ev W
_ZN9libcamera17BoundMethodMemberINS_15PipelineHandlerEiJPNS_6CameraEPKNS_11ControlListEEED2Ev W
_ZN9libcamera17BoundMethodMemberINS_15PipelineHandlerEiJPNS_6CameraEPNS_19CameraConfigurationEEE6invokeES3_S5_ W
_ZN9libcamera17BoundMethodMemberINS_15PipelineHandlerEiJPNS_6CameraEPNS_19CameraConfigurationEEE8activateES3_S5_b W
_ZN9libcamera17BoundMethodMemberINS_15PipelineHandlerEiJPNS_6CameraEPNS_19CameraConfigurationEEED0Ev W
_ZN9libcamera17BoundMethodMemberINS_15PipelineHandlerEiJPNS_6CameraEPNS_19CameraConfigurationEEED1Ev W
_ZN9libcamera17BoundMethodMemberINS_15PipelineHandlerEiJPNS_6CameraEPNS_19CameraConfigurationEEED2Ev W
_ZN9libcamera17BoundMethodMemberINS_15PipelineHandlerEiJPNS_6CameraEPNS_6StreamEPSt6vectorISt10unique_ptrINS_11FrameBufferESt14default_deleteIS8_EESaISB_EEEE6invokeES3_S5_SE_ W
_ZN9libcamera17BoundMethodMemberINS_15PipelineHandlerEiJPNS_6CameraEPNS_6StreamEPSt6vectorISt10unique_ptrINS_11FrameBufferESt14default_deleteIS8_EESaISB_EEEE8activateES3_S5_SE_b W
_ZN9libcamera17BoundMethodMemberINS_15PipelineHandlerEiJPNS_6CameraEPNS_6StreamEPSt6vectorISt10unique_ptrINS_11FrameBufferESt14default_deleteIS8_EESaISB_EEEED0Ev W
_ZN9libcamera17BoundMethodMemberINS_15PipelineHandlerEiJPNS_6CameraEPNS_6StreamEPSt6vectorISt10unique_ptrINS_11FrameBufferESt14default_deleteIS8_EESaISB_EEEED1Ev W
_ZN9libcamera17BoundMethodMemberINS_15PipelineHandlerEiJPNS_6CameraEPNS_6StreamEPSt6vectorISt10unique_ptrINS_11FrameBufferESt14default_deleteIS8_EESaISB_EEEED2Ev W
_ZN9libcamera17BoundMethodMemberINS_15PipelineHandlerEvJEE6invokeEv W
_ZN9libcamera17BoundMethodMemberINS_15PipelineHandlerEvJEE8activateEb W
_ZN9libcamera17BoundMethodMemberINS_15PipelineHandlerEvJEED0Ev W
_ZN9libcamera17BoundMethodMemberINS_15PipelineHandlerEvJEED1Ev W
_ZN9libcamera17BoundMethodMemberINS_15PipelineHandlerEvJEED2Ev W
_ZN9libcamera17BoundMethodMemberINS_15PipelineHandlerEvJPNS_6CameraEEE6invokeES3_ W
_ZN9libcamera17BoundMethodMemberINS_15PipelineHandlerEvJPNS_6CameraEEE8activateES3_b W
_ZN9libcamera17BoundMethodMemberINS_15PipelineHandlerEvJPNS_6CameraEEED0Ev W
_ZN9libcamera17BoundMethodMemberINS_15PipelineHandlerEvJPNS_6CameraEEED1Ev W
_ZN9libcamera17BoundMethodMemberINS_15PipelineHandlerEvJPNS_6CameraEEED2Ev W
_ZN9libcamera17BoundMethodMemberINS_15PipelineHandlerEvJPNS_7RequestEEE6invokeES3_ W
_ZN9libcamera17BoundMethodMemberINS_15PipelineHandlerEvJPNS_7RequestEEE8activateES3_b W
_ZN9libcamera17BoundMethodMemberINS_15PipelineHandlerEvJPNS_7RequestEEED0Ev W
_ZN9libcamera17BoundMethodMemberINS_15PipelineHandlerEvJPNS_7RequestEEED1Ev W
_ZN9libcamera17BoundMethodMemberINS_15PipelineHandlerEvJPNS_7RequestEEED2Ev W
_ZN9libcamera17BoundMethodMemberINS_15V4L2VideoDeviceEvJEE6invokeEv W
_ZN9libcamera17BoundMethodMemberINS_15V4L2VideoDeviceEvJEE8activateEb W
_ZN9libcamera17BoundMethodMemberINS_15V4L2VideoDeviceEvJEED0Ev W
_ZN9libcamera17BoundMethodMemberINS_15V4L2VideoDeviceEvJEED1Ev W
_ZN9libcamera17BoundMethodMemberINS_15V4L2VideoDeviceEvJEED2Ev W
_ZN9libcamera17BoundMethodMemberINS_16RkISP1CameraDataEvJjjEE6invokeEjj W
_ZN9libcamera17BoundMethodMemberINS_16RkISP1CameraDataEvJjjEE8activateEjjb W
_ZN9libcamera17BoundMethodMemberINS_16RkISP1CameraDataEvJjjEED0Ev W
_ZN9libcamera17BoundMethodMemberINS_16RkISP1CameraDataEvJjjEED1Ev W
_ZN9libcamera17BoundMethodMemberINS_16RkISP1CameraDataEvJjjEED2Ev W
_ZN9libcamera17BoundMethodMemberINS_16RkISP1CameraDataEvJjRKNS_11ControlListEEE6invokeEjS4_ W
_ZN9libcamera17BoundMethodMemberINS_16RkISP1CameraDataEvJjRKNS_11ControlListEEE8activateEjS4_b W
_ZN9libcamera17BoundMethodMemberINS_16RkISP1CameraDataEvJjRKNS_11ControlListEEED0Ev W
_ZN9libcamera17BoundMethodMemberINS_16RkISP1CameraDataEvJjRKNS_11ControlListEEED1Ev W
_ZN9libcamera17BoundMethodMemberINS_16RkISP1CameraDataEvJjRKNS_11ControlListEEED2Ev W
_ZN9libcamera17BoundMethodMemberINS_16SimpleCameraDataEvJjjEE6invokeEjj W
_ZN9libcamera17BoundMethodMemberINS_16SimpleCameraDataEvJjjEE8activateEjjb W
_ZN9libcamera17BoundMethodMemberINS_16SimpleCameraDataEvJjjEED0Ev W
_ZN9libcamera17BoundMethodMemberINS_16SimpleCameraDataEvJjjEED1Ev W
_ZN9libcamera17BoundMethodMemberINS_16SimpleCameraDataEvJjjEED2Ev W
_ZN9libcamera17BoundMethodMemberINS_16SimpleCameraDataEvJjRKNS_11ControlListEEE6invokeEjS4_ W
_ZN9libcamera17BoundMethodMemberINS_16SimpleCameraDataEvJjRKNS_11ControlListEEE8activateEjS4_b W
_ZN9libcamera17BoundMethodMemberINS_16SimpleCameraDataEvJjRKNS_11ControlListEEED0Ev W
_ZN9libcamera17BoundMethodMemberINS_16SimpleCameraDataEvJjRKNS_11ControlListEEED1Ev W
_ZN9libcamera17BoundMethodMemberINS_16SimpleCameraDataEvJjRKNS_11ControlListEEED2Ev W
_ZN9libcamera17BoundMethodMemberINS_16SimpleCameraDataEvJPNS_11FrameBufferEEE6invokeES3_ W
_ZN9libcamera17BoundMethodMemberINS_16SimpleCameraDataEvJPNS_11FrameBufferEEE8activateES3_b W
_ZN9libcamera17BoundMethodMemberINS_16SimpleCameraDataEvJPNS_11FrameBufferEEED0Ev W
_ZN9libcamera17BoundMethodMemberINS_16SimpleCameraDataEvJPNS_11FrameBufferEEED1Ev W
_ZN9libcamera17BoundMethodMemberINS_16SimpleCameraDataEvJPNS_11FrameBufferEEED2Ev W
_ZN9libcamera17BoundMethodMemberINS_16SimpleCameraDataEvJRKNS_11ControlListEEE6invokeES4_ W
_ZN9libcamera17BoundMethodMemberINS_16SimpleCameraDataEvJRKNS_11ControlListEEE8activateES4_b W
_ZN9libcamera17BoundMethodMemberINS_16SimpleCameraDataEvJRKNS_11ControlListEEED0Ev W
_ZN9libcamera17BoundMethodMemberINS_16SimpleCameraDataEvJRKNS_11ControlListEEED1Ev W
_ZN9libcamera17BoundMethodMemberINS_16SimpleCameraDataEvJRKNS_11ControlListEEED2Ev W
_ZN9libcamera17BoundMethodMemberINS_16V4L2M2MConverter13V4L2M2MStreamEvJPNS_11FrameBufferEEE6invokeES4_ W
_ZN9libcamera17BoundMethodMemberINS_16V4L2M2MConverter13V4L2M2MStreamEvJPNS_11FrameBufferEEE8activateES4_b W
_ZN9libcamera17BoundMethodMemberINS_16V4L2M2MConverter13V4L2M2MStreamEvJPNS_11FrameBufferEEED0Ev W
_ZN9libcamera17BoundMethodMemberINS_16V4L2M2MConverter13V4L2M2MStreamEvJPNS_11FrameBufferEEED1Ev W
_ZN9libcamera17BoundMethodMemberINS_16V4L2M2MConverter13V4L2M2MStreamEvJPNS_11FrameBufferEEED2Ev W
_ZN9libcamera17BoundMethodMemberINS_17IPCPipeUnixSocketEvJEE6invokeEv W
_ZN9libcamera17BoundMethodMemberINS_17IPCPipeUnixSocketEvJEE8activateEb W
_ZN9libcamera17BoundMethodMemberINS_17IPCPipeUnixSocketEvJEED0Ev W
_ZN9libcamera17BoundMethodMemberINS_17IPCPipeUnixSocketEvJEED1Ev W
_ZN9libcamera17BoundMethodMemberINS_17IPCPipeUnixSocketEvJEED2Ev W
_ZN9libcamera17BoundMethodMemberINS_17MaliC55CameraDataEvJRKNS_11ControlListEEE6invokeES4_ W
_ZN9libcamera17BoundMethodMemberINS_17MaliC55CameraDataEvJRKNS_11ControlListEEE8activateES4_b W
_ZN9libcamera17BoundMethodMemberINS_17MaliC55CameraDataEvJRKNS_11ControlListEEED0Ev W
_ZN9libcamera17BoundMethodMemberINS_17MaliC55CameraDataEvJRKNS_11ControlListEEED1Ev W
_ZN9libcamera17BoundMethodMemberINS_17MaliC55CameraDataEvJRKNS_11ControlListEEED2Ev W
_ZN9libcamera17BoundMethodMemberINS_18PipelineHandlerISIEvJPNS_11FrameBufferEEE6invokeES3_ W
_ZN9libcamera17BoundMethodMemberINS_18PipelineHandlerISIEvJPNS_11FrameBufferEEE8activateES3_b W
_ZN9libcamera17BoundMethodMemberINS_18PipelineHandlerISIEvJPNS_11FrameBufferEEED0Ev W
_ZN9libcamera17BoundMethodMemberINS_18PipelineHandlerISIEvJPNS_11FrameBufferEEED1Ev W
_ZN9libcamera17BoundMethodMemberINS_18PipelineHandlerISIEvJPNS_11FrameBufferEEED2Ev W
_ZN9libcamera17BoundMethodMemberINS_20DeviceEnumeratorUdevEvJEE6invokeEv W
_ZN9libcamera17BoundMethodMemberINS_20DeviceEnumeratorUdevEvJEE8activateEb W
_ZN9libcamera17BoundMethodMemberINS_20DeviceEnumeratorUdevEvJEED0Ev W
_ZN9libcamera17BoundMethodMemberINS_20DeviceEnumeratorUdevEvJEED1Ev W
_ZN9libcamera17BoundMethodMemberINS_20DeviceEnumeratorUdevEvJEED2Ev W
_ZN9libcamera17BoundMethodMemberINS_21PipelineHandlerRkISP1EvJPNS_11FrameBufferEEE6invokeES3_ W
_ZN9libcamera17BoundMethodMemberINS_21PipelineHandlerRkISP1EvJPNS_11FrameBufferEEE8activateES3_b W
_ZN9libcamera17BoundMethodMemberINS_21PipelineHandlerRkISP1EvJPNS_11FrameBufferEEED0Ev W
_ZN9libcamera17BoundMethodMemberINS_21PipelineHandlerRkISP1EvJPNS_11FrameBufferEEED1Ev W
_ZN9libcamera17BoundMethodMemberINS_21PipelineHandlerRkISP1EvJPNS_11FrameBufferEEED2Ev W
_ZN9libcamera17BoundMethodMemberINS_22PipelineHandlerMaliC55EvJjEE6invokeEj W
_ZN9libcamera17BoundMethodMemberINS_22PipelineHandlerMaliC55EvJjEE8activateEjb W
_ZN9libcamera17BoundMethodMemberINS_22PipelineHandlerMaliC55EvJjEED0Ev W
_ZN9libcamera17BoundMethodMemberINS_22PipelineHandlerMaliC55EvJjEED1Ev W
_ZN9libcamera17BoundMethodMemberINS_22PipelineHandlerMaliC55EvJjEED2Ev W
_ZN9libcamera17BoundMethodMemberINS_22PipelineHandlerMaliC55EvJjRKNS_11ControlListEEE6invokeEjS4_ W
_ZN9libcamera17BoundMethodMemberINS_22PipelineHandlerMaliC55EvJjRKNS_11ControlListEEE8activateEjS4_b W
_ZN9libcamera17BoundMethodMemberINS_22PipelineHandlerMaliC55EvJjRKNS_11ControlListEEED0Ev W
_ZN9libcamera17BoundMethodMemberINS_22PipelineHandlerMaliC55EvJjRKNS_11ControlListEEED1Ev W
_ZN9libcamera17BoundMethodMemberINS_22PipelineHandlerMaliC55EvJjRKNS_11ControlListEEED2Ev W
_ZN9libcamera17BoundMethodMemberINS_22PipelineHandlerMaliC55EvJPNS_11FrameBufferEEE6invokeES3_ W
_ZN9libcamera17BoundMethodMemberINS_22PipelineHandlerMaliC55EvJPNS_11FrameBufferEEE8activateES3_b W
_ZN9libcamera17BoundMethodMemberINS_22PipelineHandlerMaliC55EvJPNS_11FrameBufferEEED0Ev W
_ZN9libcamera17BoundMethodMemberINS_22PipelineHandlerMaliC55EvJPNS_11FrameBufferEEED1Ev W
_ZN9libcamera17BoundMethodMemberINS_22PipelineHandlerMaliC55EvJPNS_11FrameBufferEEED2Ev W
_ZN9libcamera17BoundMethodMemberINS_3ipa3RPi11IPAProxyRPi11ThreadProxyEvJEE6invokeEv W
_ZN9libcamera17BoundMethodMemberINS_3ipa3RPi11IPAProxyRPi11ThreadProxyEvJEE8activateEb W
_ZN9libcamera17BoundMethodMemberINS_3ipa3RPi11IPAProxyRPi11ThreadProxyEvJEED0Ev W
_ZN9libcamera17BoundMethodMemberINS_3ipa3RPi11IPAProxyRPi11ThreadProxyEvJEED1Ev W
_ZN9libcamera17BoundMethodMemberINS_3ipa3RPi11IPAProxyRPi11ThreadProxyEvJEED2Ev W
_ZN9libcamera17BoundMethodMemberINS_3ipa3RPi11IPAProxyRPi11ThreadProxyEvJRKNS_11ControlListEPNS2_11StartResultEEE6invokeES7_S9_ W
_ZN9libcamera17BoundMethodMemberINS_3ipa3RPi11IPAProxyRPi11ThreadProxyEvJRKNS_11ControlListEPNS2_11StartResultEEE8activateES7_S9_b W
_ZN9libcamera17BoundMethodMemberINS_3ipa3RPi11IPAProxyRPi11ThreadProxyEvJRKNS_11ControlListEPNS2_11StartResultEEED0Ev W
_ZN9libcamera17BoundMethodMemberINS_3ipa3RPi11IPAProxyRPi11ThreadProxyEvJRKNS_11ControlListEPNS2_11StartResultEEED1Ev W
_ZN9libcamera17BoundMethodMemberINS_3ipa3RPi11IPAProxyRPi11ThreadProxyEvJRKNS_11ControlListEPNS2_11StartResultEEED2Ev W
_ZN9libcamera17BoundMethodMemberINS_3ipa3RPi11IPAProxyRPi11ThreadProxyEvJRKNS2_13PrepareParamsEEE6invokeES7_ W
_ZN9libcamera17BoundMethodMemberINS_3ipa3RPi11IPAProxyRPi11ThreadProxyEvJRKNS2_13PrepareParamsEEE8activateES7_b W
_ZN9libcamera17BoundMethodMemberINS_3ipa3RPi11IPAProxyRPi11ThreadProxyEvJRKNS2_13PrepareParamsEEED0Ev W
_ZN9libcamera17BoundMethodMemberINS_3ipa3RPi11IPAProxyRPi11ThreadProxyEvJRKNS2_13PrepareParamsEEED1Ev W
_ZN9libcamera17BoundMethodMemberINS_3ipa3RPi11IPAProxyRPi11ThreadProxyEvJRKNS2_13PrepareParamsEEED2Ev W
_ZN9libcamera17BoundMethodMemberINS_3ipa3RPi11IPAProxyRPi11ThreadProxyEvJRKNS2_13ProcessParamsEEE6invokeES7_ W
_ZN9libcamera17BoundMethodMemberINS_3ipa3RPi11IPAProxyRPi11ThreadProxyEvJRKNS2_13ProcessParamsEEE8activateES7_b W
_ZN9libcamera17BoundMethodMemberINS_3ipa3RPi11IPAProxyRPi11ThreadProxyEvJRKNS2_13ProcessParamsEEED0Ev W
_ZN9libcamera17BoundMethodMemberINS_3ipa3RPi11IPAProxyRPi11ThreadProxyEvJRKNS2_13ProcessParamsEEED1Ev W
_ZN9libcamera17BoundMethodMemberINS_3ipa3RPi11IPAProxyRPi11ThreadProxyEvJRKNS2_13ProcessParamsEEED2Ev W
_ZN9libcamera17BoundMethodMemberINS_3ipa3RPi11IPAProxyRPiEvJjEE6invokeEj W
_ZN9libcamera17BoundMethodMemberINS_3ipa3RPi11IPAProxyRPiEvJjEE8activateEjb W
_ZN9libcamera17BoundMethodMemberINS_3ipa3RPi11IPAProxyRPiEvJjEED0Ev W
_ZN9libcamera17BoundMethodMemberINS_3ipa3RPi11IPAProxyRPiEvJjEED1Ev W
_ZN9libcamera17BoundMethodMemberINS_3ipa3RPi11IPAProxyRPiEvJjEED2Ev W
_ZN9libcamera17BoundMethodMemberINS_3ipa3RPi11IPAProxyRPiEvJRKNS_10IPCMessageEEE6invokeES6_ W
_ZN9libcamera17BoundMethodMemberINS_3ipa3RPi11IPAProxyRPiEvJRKNS_10IPCMessageEEE8activateES6_b W
_ZN9libcamera17BoundMethodMemberINS_3ipa3RPi11IPAProxyRPiEvJRKNS_10IPCMessageEEED0Ev W
_ZN9libcamera17BoundMethodMemberINS_3ipa3RPi11IPAProxyRPiEvJRKNS_10IPCMessageEEED1Ev W
_ZN9libcamera17BoundMethodMemberINS_3ipa3RPi11IPAProxyRPiEvJRKNS_10IPCMessageEEED2Ev W
_ZN9libcamera17BoundMethodMemberINS_3ipa3RPi11IPAProxyRPiEvJRKNS_11ControlListEEE6invokeES6_ W
_ZN9libcamera17BoundMethodMemberINS_3ipa3RPi11IPAProxyRPiEvJRKNS_11ControlListEEE8activateES6_b W
_ZN9libcamera17BoundMethodMemberINS_3ipa3RPi11IPAProxyRPiEvJRKNS_11ControlListEEED0Ev W
_ZN9libcamera17BoundMethodMemberINS_3ipa3RPi11IPAProxyRPiEvJRKNS_11ControlListEEED1Ev W
_ZN9libcamera17BoundMethodMemberINS_3ipa3RPi11IPAProxyRPiEvJRKNS_11ControlListEEED2Ev W
_ZN9libcamera17BoundMethodMemberINS_3ipa3RPi11IPAProxyRPiEvJRKNS_11ControlListEjEE6invokeES6_j W
_ZN9libcamera17BoundMethodMemberINS_3ipa3RPi11IPAProxyRPiEvJRKNS_11ControlListEjEE8activateES6_jb W
_ZN9libcamera17BoundMethodMemberINS_3ipa3RPi11IPAProxyRPiEvJRKNS_11ControlListEjEED0Ev W
_ZN9libcamera17BoundMethodMemberINS_3ipa3RPi11IPAProxyRPiEvJRKNS_11ControlListEjEED1Ev W
_ZN9libcamera17BoundMethodMemberINS_3ipa3RPi11IPAProxyRPiEvJRKNS_11ControlListEjEED2Ev W
_ZN9libcamera17BoundMethodMemberINS_3ipa3RPi11IPAProxyRPiEvJRKNS2_9BufferIdsEbEE6invokeES6_b W
_ZN9libcamera17BoundMethodMemberINS_3ipa3RPi11IPAProxyRPiEvJRKNS2_9BufferIdsEbEE8activateES6_bb W
_ZN9libcamera17BoundMethodMemberINS_3ipa3RPi11IPAProxyRPiEvJRKNS2_9BufferIdsEbEED0Ev W
_ZN9libcamera17BoundMethodMemberINS_3ipa3RPi11IPAProxyRPiEvJRKNS2_9BufferIdsEbEED1Ev W
_ZN9libcamera17BoundMethodMemberINS_3ipa3RPi11IPAProxyRPiEvJRKNS2_9BufferIdsEbEED2Ev W
_ZN9libcamera17BoundMethodMemberINS_3ipa3RPi11IPAProxyRPiEvJRKNS2_9BufferIdsEEE6invokeES6_ W
_ZN9libcamera17BoundMethodMemberINS_3ipa3RPi11IPAProxyRPiEvJRKNS2_9BufferIdsEEE8activateES6_b W
_ZN9libcamera17BoundMethodMemberINS_3ipa3RPi11IPAProxyRPiEvJRKNS2_9BufferIdsEEED0Ev W
_ZN9libcamera17BoundMethodMemberINS_3ipa3RPi11IPAProxyRPiEvJRKNS2_9BufferIdsEEED1Ev W
_ZN9libcamera17BoundMethodMemberINS_3ipa3RPi11IPAProxyRPiEvJRKNS2_9BufferIdsEEED2Ev W
_ZN9libcamera17BoundMethodMemberINS_3ipa4soft12IPAProxySoft11ThreadProxyEiJEE6invokeEv W
_ZN9libcamera17BoundMethodMemberINS_3ipa4soft12IPAProxySoft11ThreadProxyEiJEE8activateEb W
_ZN9libcamera17BoundMethodMemberINS_3ipa4soft12IPAProxySoft11ThreadProxyEiJEED0Ev W
_ZN9libcamera17BoundMethodMemberINS_3ipa4soft12IPAProxySoft11ThreadProxyEiJEED1Ev W
_ZN9libcamera17BoundMethodMemberINS_3ipa4soft12IPAProxySoft11ThreadProxyEiJEED2Ev W
_ZN9libcamera17BoundMethodMemberINS_3ipa4soft12IPAProxySoft11ThreadProxyEvJEE6invokeEv W
_ZN9libcamera17BoundMethodMemberINS_3ipa4soft12IPAProxySoft11ThreadProxyEvJEE8activateEb W
_ZN9libcamera17BoundMethodMemberINS_3ipa4soft12IPAProxySoft11ThreadProxyEvJEED0Ev W
_ZN9libcamera17BoundMethodMemberINS_3ipa4soft12IPAProxySoft11ThreadProxyEvJEED1Ev W
_ZN9libcamera17BoundMethodMemberINS_3ipa4soft12IPAProxySoft11ThreadProxyEvJEED2Ev W
_ZN9libcamera17BoundMethodMemberINS_3ipa4soft12IPAProxySoft11ThreadProxyEvJjEE6invokeEj W
_ZN9libcamera17BoundMethodMemberINS_3ipa4soft12IPAProxySoft11ThreadProxyEvJjEE8activateEjb W
_ZN9libcamera17BoundMethodMemberINS_3ipa4soft12IPAProxySoft11ThreadProxyEvJjEED0Ev W
_ZN9libcamera17BoundMethodMemberINS_3ipa4soft12IPAProxySoft11ThreadProxyEvJjEED1Ev W
_ZN9libcamera17BoundMethodMemberINS_3ipa4soft12IPAProxySoft11ThreadProxyEvJjEED2Ev W
_ZN9libcamera17BoundMethodMemberINS_3ipa4soft12IPAProxySoft11ThreadProxyEvJjjRKNS_11ControlListEEE6invokeEjjS7_ W
_ZN9libcamera17BoundMethodMemberINS_3ipa4soft12IPAProxySoft11ThreadProxyEvJjjRKNS_11ControlListEEE8activateEjjS7_b W
_ZN9libcamera17BoundMethodMemberINS_3ipa4soft12IPAProxySoft11ThreadProxyEvJjjRKNS_11ControlListEEED0Ev W
_ZN9libcamera17BoundMethodMemberINS_3ipa4soft12IPAProxySoft11ThreadProxyEvJjjRKNS_11ControlListEEED1Ev W
_ZN9libcamera17BoundMethodMemberINS_3ipa4soft12IPAProxySoft11ThreadProxyEvJjjRKNS_11ControlListEEED2Ev W
_ZN9libcamera17BoundMethodMemberINS_3ipa4soft12IPAProxySoft11ThreadProxyEvJjRKNS_11ControlListEEE6invokeEjS7_ W
_ZN9libcamera17BoundMethodMemberINS_3ipa4soft12IPAProxySoft11ThreadProxyEvJjRKNS_11ControlListEEE8activateEjS7_b W
_ZN9libcamera17BoundMethodMemberINS_3ipa4soft12IPAProxySoft11ThreadProxyEvJjRKNS_11ControlListEEED0Ev W
_ZN9libcamera17BoundMethodMemberINS_3ipa4soft12IPAProxySoft11ThreadProxyEvJjRKNS_11ControlListEEED1Ev W
_ZN9libcamera17BoundMethodMemberINS_3ipa4soft12IPAProxySoft11ThreadProxyEvJjRKNS_11ControlListEEED2Ev W
_ZN9libcamera17BoundMethodMemberINS_3ipa4soft12IPAProxySoftEvJEE6invokeEv W
_ZN9libcamera17BoundMethodMemberINS_3ipa4soft12IPAProxySoftEvJEE8activateEb W
_ZN9libcamera17BoundMethodMemberINS_3ipa4soft12IPAProxySoftEvJEED0Ev W
_ZN9libcamera17BoundMethodMemberINS_3ipa4soft12IPAProxySoftEvJEED1Ev W
_ZN9libcamera17BoundMethodMemberINS_3ipa4soft12IPAProxySoftEvJEED2Ev W
_ZN9libcamera17BoundMethodMemberINS_3ipa4soft12IPAProxySoftEvJjRKNS_11ControlListEEE6invokeEjS6_ W
_ZN9libcamera17BoundMethodMemberINS_3ipa4soft12IPAProxySoftEvJjRKNS_11ControlListEEE8activateEjS6_b W
_ZN9libcamera17BoundMethodMemberINS_3ipa4soft12IPAProxySoftEvJjRKNS_11ControlListEEED0Ev W
_ZN9libcamera17BoundMethodMemberINS_3ipa4soft12IPAProxySoftEvJjRKNS_11ControlListEEED1Ev W
_ZN9libcamera17BoundMethodMemberINS_3ipa4soft12IPAProxySoftEvJjRKNS_11ControlListEEED2Ev W
_ZN9libcamera17BoundMethodMemberINS_3ipa4soft12IPAProxySoftEvJRKNS_10IPCMessageEEE6invokeES6_ W
_ZN9libcamera17BoundMethodMemberINS_3ipa4soft12IPAProxySoftEvJRKNS_10IPCMessageEEE8activateES6_b W
_ZN9libcamera17BoundMethodMemberINS_3ipa4soft12IPAProxySoftEvJRKNS_10IPCMessageEEED0Ev W
_ZN9libcamera17BoundMethodMemberINS_3ipa4soft12IPAProxySoftEvJRKNS_10IPCMessageEEED1Ev W
_ZN9libcamera17BoundMethodMemberINS_3ipa4soft12IPAProxySoftEvJRKNS_10IPCMessageEEED2Ev W
_ZN9libcamera17BoundMethodMemberINS_3ipa4soft12IPAProxySoftEvJRKNS_11ControlListEEE6invokeES6_ W
_ZN9libcamera17BoundMethodMemberINS_3ipa4soft12IPAProxySoftEvJRKNS_11ControlListEEE8activateES6_b W
_ZN9libcamera17BoundMethodMemberINS_3ipa4soft12IPAProxySoftEvJRKNS_11ControlListEEED0Ev W
_ZN9libcamera17BoundMethodMemberINS_3ipa4soft12IPAProxySoftEvJRKNS_11ControlListEEED1Ev W
_ZN9libcamera17BoundMethodMemberINS_3ipa4soft12IPAProxySoftEvJRKNS_11ControlListEEED2Ev W
_ZN9libcamera17BoundMethodMemberINS_3ipa6rkisp114IPAProxyRkISP111ThreadProxyEiJEE6invokeEv W
_ZN9libcamera17BoundMethodMemberINS_3ipa6rkisp114IPAProxyRkISP111ThreadProxyEiJEE8activateEb W
_ZN9libcamera17BoundMethodMemberINS_3ipa6rkisp114IPAProxyRkISP111ThreadProxyEiJEED0Ev W
_ZN9libcamera17BoundMethodMemberINS_3ipa6rkisp114IPAProxyRkISP111ThreadProxyEiJEED1Ev W
_ZN9libcamera17BoundMethodMemberINS_3ipa6rkisp114IPAProxyRkISP111ThreadProxyEiJEED2Ev W
_ZN9libcamera17BoundMethodMemberINS_3ipa6rkisp114IPAProxyRkISP111ThreadProxyEvJEE6invokeEv W
_ZN9libcamera17BoundMethodMemberINS_3ipa6rkisp114IPAProxyRkISP111ThreadProxyEvJEE8activateEb W
_ZN9libcamera17BoundMethodMemberINS_3ipa6rkisp114IPAProxyRkISP111ThreadProxyEvJEED0Ev W
_ZN9libcamera17BoundMethodMemberINS_3ipa6rkisp114IPAProxyRkISP111ThreadProxyEvJEED1Ev W
_ZN9libcamera17BoundMethodMemberINS_3ipa6rkisp114IPAProxyRkISP111ThreadProxyEvJEED2Ev W
_ZN9libcamera17BoundMethodMemberINS_3ipa6rkisp114IPAProxyRkISP111ThreadProxyEvJjjEE6invokeEjj W
_ZN9libcamera17BoundMethodMemberINS_3ipa6rkisp114IPAProxyRkISP111ThreadProxyEvJjjEE8activateEjjb W
_ZN9libcamera17BoundMethodMemberINS_3ipa6rkisp114IPAProxyRkISP111ThreadProxyEvJjjEED0Ev W
_ZN9libcamera17BoundMethodMemberINS_3ipa6rkisp114IPAProxyRkISP111ThreadProxyEvJjjEED1Ev W
_ZN9libcamera17BoundMethodMemberINS_3ipa6rkisp114IPAProxyRkISP111ThreadProxyEvJjjEED2Ev W
_ZN9libcamera17BoundMethodMemberINS_3ipa6rkisp114IPAProxyRkISP111ThreadProxyEvJjjRKNS_11ControlListEEE6invokeEjjS7_ W
_ZN9libcamera17BoundMethodMemberINS_3ipa6rkisp114IPAProxyRkISP111ThreadProxyEvJjjRKNS_11ControlListEEE8activateEjjS7_b W
_ZN9libcamera17BoundMethodMemberINS_3ipa6rkisp114IPAProxyRkISP111ThreadProxyEvJjjRKNS_11ControlListEEED0Ev W
_ZN9libcamera17BoundMethodMemberINS_3ipa6rkisp114IPAProxyRkISP111ThreadProxyEvJjjRKNS_11ControlListEEED1Ev W
_ZN9libcamera17BoundMethodMemberINS_3ipa6rkisp114IPAProxyRkISP111ThreadProxyEvJjjRKNS_11ControlListEEED2Ev W
_ZN9libcamera17BoundMethodMemberINS_3ipa6rkisp114IPAProxyRkISP111ThreadProxyEvJjRKNS_11ControlListEEE6invokeEjS7_ W
_ZN9libcamera17BoundMethodMemberINS_3ipa6rkisp114IPAProxyRkISP111ThreadProxyEvJjRKNS_11ControlListEEE8activateEjS7_b W
_ZN9libcamera17BoundMethodMemberINS_3ipa6rkisp114IPAProxyRkISP111ThreadProxyEvJjRKNS_11ControlListEEED0Ev W
_ZN9libcamera17BoundMethodMemberINS_3ipa6rkisp114IPAProxyRkISP111ThreadProxyEvJjRKNS_11ControlListEEED1Ev W
_ZN9libcamera17BoundMethodMemberINS_3ipa6rkisp114IPAProxyRkISP111ThreadProxyEvJjRKNS_11ControlListEEED2Ev W
_ZN9libcamera17BoundMethodMemberINS_3ipa6rkisp114IPAProxyRkISP1EvJjjEE6invokeEjj W
_ZN9libcamera17BoundMethodMemberINS_3ipa6rkisp114IPAProxyRkISP1EvJjjEE8activateEjjb W
_ZN9libcamera17BoundMethodMemberINS_3ipa6rkisp114IPAProxyRkISP1EvJjjEED0Ev W
_ZN9libcamera17BoundMethodMemberINS_3ipa6rkisp114IPAProxyRkISP1EvJjjEED1Ev W
_ZN9libcamera17BoundMethodMemberINS_3ipa6rkisp114IPAProxyRkISP1EvJjjEED2Ev W
_ZN9libcamera17BoundMethodMemberINS_3ipa6rkisp114IPAProxyRkISP1EvJjRKNS_11ControlListEEE6invokeEjS6_ W
_ZN9libcamera17BoundMethodMemberINS_3ipa6rkisp114IPAProxyRkISP1EvJjRKNS_11ControlListEEE8activateEjS6_b W
_ZN9libcamera17BoundMethodMemberINS_3ipa6rkisp114IPAProxyRkISP1EvJjRKNS_11ControlListEEED0Ev W
_ZN9libcamera17BoundMethodMemberINS_3ipa6rkisp114IPAProxyRkISP1EvJjRKNS_11ControlListEEED1Ev W
_ZN9libcamera17BoundMethodMemberINS_3ipa6rkisp114IPAProxyRkISP1EvJjRKNS_11ControlListEEED2Ev W
_ZN9libcamera17BoundMethodMemberINS_3ipa6rkisp114IPAProxyRkISP1EvJRKNS_10IPCMessageEEE6invokeES6_ W
_ZN9libcamera17BoundMethodMemberINS_3ipa6rkisp114IPAProxyRkISP1EvJRKNS_10IPCMessageEEE8activateES6_b W
_ZN9libcamera17BoundMethodMemberINS_3ipa6rkisp114IPAProxyRkISP1EvJRKNS_10IPCMessageEEED0Ev W
_ZN9libcamera17BoundMethodMemberINS_3ipa6rkisp114IPAProxyRkISP1EvJRKNS_10IPCMessageEEED1Ev W
_ZN9libcamera17BoundMethodMemberINS_3ipa6rkisp114IPAProxyRkISP1EvJRKNS_10IPCMessageEEED2Ev W
_ZN9libcamera17BoundMethodMemberINS_3ipa8mali_c5515IPAProxyMaliC5511ThreadProxyEiJEE6invokeEv W
_ZN9libcamera17BoundMethodMemberINS_3ipa8mali_c5515IPAProxyMaliC5511ThreadProxyEiJEE8activateEb W
_ZN9libcamera17BoundMethodMemberINS_3ipa8mali_c5515IPAProxyMaliC5511ThreadProxyEiJEED0Ev W
_ZN9libcamera17BoundMethodMemberINS_3ipa8mali_c5515IPAProxyMaliC5511ThreadProxyEiJEED1Ev W
_ZN9libcamera17BoundMethodMemberINS_3ipa8mali_c5515IPAProxyMaliC5511ThreadProxyEiJEED2Ev W
_ZN9libcamera17BoundMethodMemberINS_3ipa8mali_c5515IPAProxyMaliC5511ThreadProxyEvJEE6invokeEv W
_ZN9libcamera17BoundMethodMemberINS_3ipa8mali_c5515IPAProxyMaliC5511ThreadProxyEvJEE8activateEb W
_ZN9libcamera17BoundMethodMemberINS_3ipa8mali_c5515IPAProxyMaliC5511ThreadProxyEvJEED0Ev W
_ZN9libcamera17BoundMethodMemberINS_3ipa8mali_c5515IPAProxyMaliC5511ThreadProxyEvJEED1Ev W
_ZN9libcamera17BoundMethodMemberINS_3ipa8mali_c5515IPAProxyMaliC5511ThreadProxyEvJEED2Ev W
_ZN9libcamera17BoundMethodMemberINS_3ipa8mali_c5515IPAProxyMaliC5511ThreadProxyEvJjjEE6invokeEjj W
_ZN9libcamera17BoundMethodMemberINS_3ipa8mali_c5515IPAProxyMaliC5511ThreadProxyEvJjjEE8activateEjjb W
_ZN9libcamera17BoundMethodMemberINS_3ipa8mali_c5515IPAProxyMaliC5511ThreadProxyEvJjjEED0Ev W
_ZN9libcamera17BoundMethodMemberINS_3ipa8mali_c5515IPAProxyMaliC5511ThreadProxyEvJjjEED1Ev W
_ZN9libcamera17BoundMethodMemberINS_3ipa8mali_c5515IPAProxyMaliC5511ThreadProxyEvJjjEED2Ev W
_ZN9libcamera17BoundMethodMemberINS_3ipa8mali_c5515IPAProxyMaliC5511ThreadProxyEvJjjRKNS_11ControlListEEE6invokeEjjS7_ W
_ZN9libcamera17BoundMethodMemberINS_3ipa8mali_c5515IPAProxyMaliC5511ThreadProxyEvJjjRKNS_11ControlListEEE8activateEjjS7_b W
_ZN9libcamera17BoundMethodMemberINS_3ipa8mali_c5515IPAProxyMaliC5511ThreadProxyEvJjjRKNS_11ControlListEEED0Ev W
_ZN9libcamera17BoundMethodMemberINS_3ipa8mali_c5515IPAProxyMaliC5511ThreadProxyEvJjjRKNS_11ControlListEEED1Ev W
_ZN9libcamera17BoundMethodMemberINS_3ipa8mali_c5515IPAProxyMaliC5511ThreadProxyEvJjjRKNS_11ControlListEEED2Ev W
_ZN9libcamera17BoundMethodMemberINS_3ipa8mali_c5515IPAProxyMaliC5511ThreadProxyEvJjRKNS_11ControlListEEE6invokeEjS7_ W
_ZN9libcamera17BoundMethodMemberINS_3ipa8mali_c5515IPAProxyMaliC5511ThreadProxyEvJjRKNS_11ControlListEEE8activateEjS7_b W
_ZN9libcamera17BoundMethodMemberINS_3ipa8mali_c5515IPAProxyMaliC5511ThreadProxyEvJjRKNS_11ControlListEEED0Ev W
_ZN9libcamera17BoundMethodMemberINS_3ipa8mali_c5515IPAProxyMaliC5511ThreadProxyEvJjRKNS_11ControlListEEED1Ev W
_ZN9libcamera17BoundMethodMemberINS_3ipa8mali_c5515IPAProxyMaliC5511ThreadProxyEvJjRKNS_11ControlListEEED2Ev W
_ZN9libcamera17BoundMethodMemberINS_3ipa8mali_c5515IPAProxyMaliC55EvJjEE6invokeEj W
_ZN9libcamera17BoundMethodMemberINS_3ipa8mali_c5515IPAProxyMaliC55EvJjEE8activateEjb W
_ZN9libcamera17BoundMethodMemberINS_3ipa8mali_c5515IPAProxyMaliC55EvJjEED0Ev W
_ZN9libcamera17BoundMethodMemberINS_3ipa8mali_c5515IPAProxyMaliC55EvJjEED1Ev W
_ZN9libcamera17BoundMethodMemberINS_3ipa8mali_c5515IPAProxyMaliC55EvJjEED2Ev W
_ZN9libcamera17BoundMethodMemberINS_3ipa8mali_c5515IPAProxyMaliC55EvJjRKNS_11ControlListEEE6invokeEjS6_ W
_ZN9libcamera17BoundMethodMemberINS_3ipa8mali_c5515IPAProxyMaliC55EvJjRKNS_11ControlListEEE8activateEjS6_b W
_ZN9libcamera17BoundMethodMemberINS_3ipa8mali_c5515IPAProxyMaliC55EvJjRKNS_11ControlListEEED0Ev W
_ZN9libcamera17BoundMethodMemberINS_3ipa8mali_c5515IPAProxyMaliC55EvJjRKNS_11ControlListEEED1Ev W
_ZN9libcamera17BoundMethodMemberINS_3ipa8mali_c5515IPAProxyMaliC55EvJjRKNS_11ControlListEEED2Ev W
_ZN9libcamera17BoundMethodMemberINS_3ipa8mali_c5515IPAProxyMaliC55EvJRKNS_10IPCMessageEEE6invokeES6_ W
_ZN9libcamera17BoundMethodMemberINS_3ipa8mali_c5515IPAProxyMaliC55EvJRKNS_10IPCMessageEEE8activateES6_b W
_ZN9libcamera17BoundMethodMemberINS_3ipa8mali_c5515IPAProxyMaliC55EvJRKNS_10IPCMessageEEED0Ev W
_ZN9libcamera17BoundMethodMemberINS_3ipa8mali_c5515IPAProxyMaliC55EvJRKNS_10IPCMessageEEED1Ev W
_ZN9libcamera17BoundMethodMemberINS_3ipa8mali_c5515IPAProxyMaliC55EvJRKNS_10IPCMessageEEED2Ev W
_ZN9libcamera17BoundMethodMemberINS_3ipa8mali_c5515IPAProxyMaliC55EvJRKNS_11ControlListEEE6invokeES6_ W
_ZN9libcamera17BoundMethodMemberINS_3ipa8mali_c5515IPAProxyMaliC55EvJRKNS_11ControlListEEE8activateES6_b W
_ZN9libcamera17BoundMethodMemberINS_3ipa8mali_c5515IPAProxyMaliC55EvJRKNS_11ControlListEEED0Ev W
_ZN9libcamera17BoundMethodMemberINS_3ipa8mali_c5515IPAProxyMaliC55EvJRKNS_11ControlListEEED1Ev W
_ZN9libcamera17BoundMethodMemberINS_3ipa8mali_c5515IPAProxyMaliC55EvJRKNS_11ControlListEEED2Ev W
_ZN9libcamera17BoundMethodMemberINS_3RPi10CameraDataEvJEE6invokeEv W
_ZN9libcamera17BoundMethodMemberINS_3RPi10CameraDataEvJEE8activateEb W
_ZN9libcamera17BoundMethodMemberINS_3RPi10CameraDataEvJEED0Ev W
_ZN9libcamera17BoundMethodMemberINS_3RPi10CameraDataEvJEED1Ev W
_ZN9libcamera17BoundMethodMemberINS_3RPi10CameraDataEvJEED2Ev W
_ZN9libcamera17BoundMethodMemberINS_3RPi10CameraDataEvJjEE6invokeEj W
_ZN9libcamera17BoundMethodMemberINS_3RPi10CameraDataEvJjEE8activateEjb W
_ZN9libcamera17BoundMethodMemberINS_3RPi10CameraDataEvJjEED0Ev W
_ZN9libcamera17BoundMethodMemberINS_3RPi10CameraDataEvJjEED1Ev W
_ZN9libcamera17BoundMethodMemberINS_3RPi10CameraDataEvJjEED2Ev W
_ZN9libcamera17BoundMethodMemberINS_3RPi10CameraDataEvJRKNS_11ControlListEEE6invokeES5_ W
_ZN9libcamera17BoundMethodMemberINS_3RPi10CameraDataEvJRKNS_11ControlListEEE8activateES5_b W
_ZN9libcamera17BoundMethodMemberINS_3RPi10CameraDataEvJRKNS_11ControlListEEED0Ev W
_ZN9libcamera17BoundMethodMemberINS_3RPi10CameraDataEvJRKNS_11ControlListEEED1Ev W
_ZN9libcamera17BoundMethodMemberINS_3RPi10CameraDataEvJRKNS_11ControlListEEED2Ev W
_ZN9libcamera17BoundMethodMemberINS_3RPi10CameraDataEvJRKNS_11ControlListEjEE6invokeES5_j W
_ZN9libcamera17BoundMethodMemberINS_3RPi10CameraDataEvJRKNS_11ControlListEjEE8activateES5_jb W
_ZN9libcamera17BoundMethodMemberINS_3RPi10CameraDataEvJRKNS_11ControlListEjEED0Ev W
_ZN9libcamera17BoundMethodMemberINS_3RPi10CameraDataEvJRKNS_11ControlListEjEED1Ev W
_ZN9libcamera17BoundMethodMemberINS_3RPi10CameraDataEvJRKNS_11ControlListEjEED2Ev W
_ZN9libcamera17BoundMethodMemberINS_7Request7PrivateEvJEE6invokeEv W
_ZN9libcamera17BoundMethodMemberINS_7Request7PrivateEvJEE8activateEb W
_ZN9libcamera17BoundMethodMemberINS_7Request7PrivateEvJEED0Ev W
_ZN9libcamera17BoundMethodMemberINS_7Request7PrivateEvJEED1Ev W
_ZN9libcamera17BoundMethodMemberINS_7Request7PrivateEvJEED2Ev W
_ZN9libcamera17ControlSerializer10binarySizeERKNS_11ControlInfoE T
_ZN9libcamera17ControlSerializer10binarySizeERKNS_11ControlListE T
_ZN9libcamera17ControlSerializer10binarySizeERKNS_12ControlValueE T
_ZN9libcamera17ControlSerializer10binarySizeERKNS_14ControlInfoMapE T
_ZN9libcamera17ControlSerializer11deserializeINS_11ControlListEEET_RNS_16ByteStreamBufferE T
_ZN9libcamera17ControlSerializer11deserializeINS_14ControlInfoMapEEET_RNS_16ByteStreamBufferE T
_ZN9libcamera17ControlSerializer15loadControlInfoERNS_16ByteStreamBufferE T
_ZN9libcamera17ControlSerializer16loadControlValueERNS_16ByteStreamBufferEbj T
_ZN9libcamera17ControlSerializer5resetEv T
_ZN9libcamera17ControlSerializer5storeERKNS_11ControlInfoERNS_16ByteStreamBufferE T
_ZN9libcamera17ControlSerializer5storeERKNS_12ControlValueERNS_16ByteStreamBufferE T
_ZN9libcamera17ControlSerializer8isCachedERKNS_14ControlInfoMapE T
_ZN9libcamera17ControlSerializer9serializeERKNS_11ControlListERNS_16ByteStreamBufferE T
_ZN9libcamera17ControlSerializer9serializeERKNS_14ControlInfoMapERNS_16ByteStreamBufferE T
_ZN9libcamera17ControlSerializerC1ENS0_4RoleE T
_ZN9libcamera17ControlSerializerC2ENS0_4RoleE T
_ZN9libcamera17ControlSerializerD1Ev W
_ZN9libcamera17ControlSerializerD2Ev W
_ZN9libcamera17deviceAdjustTableE B 38
_ZN9libcamera17IPADataSerializerIaE11deserializeEN9__gnu_cxx17__normal_iteratorIPKhSt6vectorIhSaIhEEEES9_NS3_IPKNS_8SharedFDES6_ISA_SaISA_EEEESF_PNS_17ControlSerializerE T
_ZN9libcamera17IPADataSerializerIaE11deserializeEN9__gnu_cxx17__normal_iteratorIPKhSt6vectorIhSaIhEEEES9_PNS_17ControlSerializerE T
_ZN9libcamera17IPADataSerializerIaE11deserializeERKSt6vectorIhSaIhEEPNS_17ControlSerializerE T
_ZN9libcamera17IPADataSerializerIaE11deserializeERKSt6vectorIhSaIhEERKS2_INS_8SharedFDESaIS7_EEPNS_17ControlSerializerE T
_ZN9libcamera17IPADataSerializerIaE9serializeERKaPNS_17ControlSerializerE T
_ZN9libcamera17IPADataSerializerIbE11deserializeEN9__gnu_cxx17__normal_iteratorIPKhSt6vectorIhSaIhEEEES9_NS3_IPKNS_8SharedFDES6_ISA_SaISA_EEEESF_PNS_17ControlSerializerE T
_ZN9libcamera17IPADataSerializerIbE11deserializeEN9__gnu_cxx17__normal_iteratorIPKhSt6vectorIhSaIhEEEES9_PNS_17ControlSerializerE T
_ZN9libcamera17IPADataSerializerIbE11deserializeERKSt6vectorIhSaIhEEPNS_17ControlSerializerE T
_ZN9libcamera17IPADataSerializerIbE11deserializeERKSt6vectorIhSaIhEERKS2_INS_8SharedFDESaIS7_EEPNS_17ControlSerializerE T
_ZN9libcamera17IPADataSerializerIbE9serializeERKbPNS_17ControlSerializerE T
_ZN9libcamera17IPADataSerializerIdE11deserializeEN9__gnu_cxx17__normal_iteratorIPKhSt6vectorIhSaIhEEEES9_NS3_IPKNS_8SharedFDES6_ISA_SaISA_EEEESF_PNS_17ControlSerializerE T
_ZN9libcamera17IPADataSerializerIdE11deserializeEN9__gnu_cxx17__normal_iteratorIPKhSt6vectorIhSaIhEEEES9_PNS_17ControlSerializerE T
_ZN9libcamera17IPADataSerializerIdE11deserializeERKSt6vectorIhSaIhEEPNS_17ControlSerializerE T
_ZN9libcamera17IPADataSerializerIdE11deserializeERKSt6vectorIhSaIhEERKS2_INS_8SharedFDESaIS7_EEPNS_17ControlSerializerE T
_ZN9libcamera17IPADataSerializerIdE9serializeERKdPNS_17ControlSerializerE T
_ZN9libcamera17IPADataSerializerIfE11deserializeEN9__gnu_cxx17__normal_iteratorIPKhSt6vectorIhSaIhEEEES9_NS3_IPKNS_8SharedFDES6_ISA_SaISA_EEEESF_PNS_17ControlSerializerE T
_ZN9libcamera17IPADataSerializerIfE11deserializeEN9__gnu_cxx17__normal_iteratorIPKhSt6vectorIhSaIhEEEES9_PNS_17ControlSerializerE T
_ZN9libcamera17IPADataSerializerIfE11deserializeERKSt6vectorIhSaIhEEPNS_17ControlSerializerE T
_ZN9libcamera17IPADataSerializerIfE11deserializeERKSt6vectorIhSaIhEERKS2_INS_8SharedFDESaIS7_EEPNS_17ControlSerializerE T
_ZN9libcamera17IPADataSerializerIfE9serializeERKfPNS_17ControlSerializerE T
_ZN9libcamera17IPADataSerializerIhE11deserializeEN9__gnu_cxx17__normal_iteratorIPKhSt6vectorIhSaIhEEEES9_NS3_IPKNS_8SharedFDES6_ISA_SaISA_EEEESF_PNS_17ControlSerializerE T
_ZN9libcamera17IPADataSerializerIhE11deserializeEN9__gnu_cxx17__normal_iteratorIPKhSt6vectorIhSaIhEEEES9_PNS_17ControlSerializerE T
_ZN9libcamera17IPADataSerializerIhE11deserializeERKSt6vectorIhSaIhEEPNS_17ControlSerializerE T
_ZN9libcamera17IPADataSerializerIhE11deserializeERKSt6vectorIhSaIhEERKS2_INS_8SharedFDESaIS7_EEPNS_17ControlSerializerE T
_ZN9libcamera17IPADataSerializerIhE9serializeERKhPNS_17ControlSerializerE T
_ZN9libcamera17IPADataSerializerIiE11deserializeEN9__gnu_cxx17__normal_iteratorIPKhSt6vectorIhSaIhEEEES9_NS3_IPKNS_8SharedFDES6_ISA_SaISA_EEEESF_PNS_17ControlSerializerE T
_ZN9libcamera17IPADataSerializerIiE11deserializeEN9__gnu_cxx17__normal_iteratorIPKhSt6vectorIhSaIhEEEES9_PNS_17ControlSerializerE T
_ZN9libcamera17IPADataSerializerIiE11deserializeERKSt6vectorIhSaIhEEPNS_17ControlSerializerE T
_ZN9libcamera17IPADataSerializerIiE11deserializeERKSt6vectorIhSaIhEERKS2_INS_8SharedFDESaIS7_EEPNS_17ControlSerializerE T
_ZN9libcamera17IPADataSerializerIiE9serializeERKiPNS_17ControlSerializerE T
_ZN9libcamera17IPADataSerializerIjE11deserializeEN9__gnu_cxx17__normal_iteratorIPKhSt6vectorIhSaIhEEEES9_NS3_IPKNS_8SharedFDES6_ISA_SaISA_EEEESF_PNS_17ControlSerializerE T
_ZN9libcamera17IPADataSerializerIjE11deserializeEN9__gnu_cxx17__normal_iteratorIPKhSt6vectorIhSaIhEEEES9_PNS_17ControlSerializerE T
_ZN9libcamera17IPADataSerializerIjE11deserializeERKSt6vectorIhSaIhEEPNS_17ControlSerializerE T
_ZN9libcamera17IPADataSerializerIjE11deserializeERKSt6vectorIhSaIhEERKS2_INS_8SharedFDESaIS7_EEPNS_17ControlSerializerE T
_ZN9libcamera17IPADataSerializerIjE9serializeERKjPNS_17ControlSerializerE T
_ZN9libcamera17IPADataSerializerIlE11deserializeEN9__gnu_cxx17__normal_iteratorIPKhSt6vectorIhSaIhEEEES9_NS3_IPKNS_8SharedFDES6_ISA_SaISA_EEEESF_PNS_17ControlSerializerE T
_ZN9libcamera17IPADataSerializerIlE11deserializeEN9__gnu_cxx17__normal_iteratorIPKhSt6vectorIhSaIhEEEES9_PNS_17ControlSerializerE T
_ZN9libcamera17IPADataSerializerIlE11deserializeERKSt6vectorIhSaIhEEPNS_17ControlSerializerE T
_ZN9libcamera17IPADataSerializerIlE11deserializeERKSt6vectorIhSaIhEERKS2_INS_8SharedFDESaIS7_EEPNS_17ControlSerializerE T
_ZN9libcamera17IPADataSerializerIlE9serializeERKlPNS_17ControlSerializerE T
_ZN9libcamera17IPADataSerializerImE11deserializeEN9__gnu_cxx17__normal_iteratorIPKhSt6vectorIhSaIhEEEES9_NS3_IPKNS_8SharedFDES6_ISA_SaISA_EEEESF_PNS_17ControlSerializerE T
_ZN9libcamera17IPADataSerializerImE11deserializeEN9__gnu_cxx17__normal_iteratorIPKhSt6vectorIhSaIhEEEES9_PNS_17ControlSerializerE T
_ZN9libcamera17IPADataSerializerImE11deserializeERKSt6vectorIhSaIhEEPNS_17ControlSerializerE T
_ZN9libcamera17IPADataSerializerImE11deserializeERKSt6vectorIhSaIhEERKS2_INS_8SharedFDESaIS7_EEPNS_17ControlSerializerE T
_ZN9libcamera17IPADataSerializerImE9serializeERKmPNS_17ControlSerializerE T
_ZN9libcamera17IPADataSerializerINS_11ControlListEE11deserializeEN9__gnu_cxx17__normal_iteratorIPKhSt6vectorIhSaIhEEEESA_NS4_IPKNS_8SharedFDES7_ISB_SaISB_EEEESG_PNS_17ControlSerializerE T
_ZN9libcamera17IPADataSerializerINS_11ControlListEE11deserializeEN9__gnu_cxx17__normal_iteratorIPKhSt6vectorIhSaIhEEEESA_PNS_17ControlSerializerE T
_ZN9libcamera17IPADataSerializerINS_11ControlListEE11deserializeERKSt6vectorIhSaIhEEPNS_17ControlSerializerE T
_ZN9libcamera17IPADataSerializerINS_11ControlListEE11deserializeERKSt6vectorIhSaIhEERKS3_INS_8SharedFDESaIS8_EEPNS_17ControlSerializerE T
_ZN9libcamera17IPADataSerializerINS_11ControlListEE9serializeERKS1_PNS_17ControlSerializerE T
_ZN9libcamera17IPADataSerializerINS_11FrameBuffer5PlaneEE11deserializeEN9__gnu_cxx17__normal_iteratorIPKhSt6vectorIhSaIhEEEESB_NS5_IPKNS_8SharedFDES8_ISC_SaISC_EEEESH_PNS_17ControlSerializerE T
_ZN9libcamera17IPADataSerializerINS_11FrameBuffer5PlaneEE11deserializeERKSt6vectorIhSaIhEERKS4_INS_8SharedFDESaIS9_EEPNS_17ControlSerializerE T
_ZN9libcamera17IPADataSerializerINS_11FrameBuffer5PlaneEE9serializeERKS2_PNS_17ControlSerializerE T
_ZN9libcamera17IPADataSerializerINS_14ControlInfoMapEE11deserializeEN9__gnu_cxx17__normal_iteratorIPKhSt6vectorIhSaIhEEEESA_NS4_IPKNS_8SharedFDES7_ISB_SaISB_EEEESG_PNS_17ControlSerializerE T
_ZN9libcamera17IPADataSerializerINS_14ControlInfoMapEE11deserializeEN9__gnu_cxx17__normal_iteratorIPKhSt6vectorIhSaIhEEEESA_PNS_17ControlSerializerE T
_ZN9libcamera17IPADataSerializerINS_14ControlInfoMapEE11deserializeERKSt6vectorIhSaIhEEPNS_17ControlSerializerE T
_ZN9libcamera17IPADataSerializerINS_14ControlInfoMapEE11deserializeERKSt6vectorIhSaIhEERKS3_INS_8SharedFDESaIS8_EEPNS_17ControlSerializerE T
_ZN9libcamera17IPADataSerializerINS_14ControlInfoMapEE9serializeERKS1_PNS_17ControlSerializerE T
_ZN9libcamera17IPADataSerializerINS_3ipa3RPi10InitResultEE11deserializeEN9__gnu_cxx17__normal_iteratorIPKhSt6vectorIhSaIhEEEESC_PNS_17ControlSerializerE W
_ZN9libcamera17IPADataSerializerINS_3ipa3RPi11StartResultEE11deserializeEN9__gnu_cxx17__normal_iteratorIPKhSt6vectorIhSaIhEEEESC_PNS_17ControlSerializerE W
_ZN9libcamera17IPADataSerializerINS_3ipa3RPi12ConfigParamsEE9serializeERKS3_PNS_17ControlSerializerE W
_ZN9libcamera17IPADataSerializerINS_3ipa3RPi12ConfigResultEE11deserializeEN9__gnu_cxx17__normal_iteratorIPKhSt6vectorIhSaIhEEEESC_PNS_17ControlSerializerE W
_ZN9libcamera17IPADataSerializerINS_3ipa3RPi13PrepareParamsEE9serializeERKS3_PNS_17ControlSerializerE W
_ZN9libcamera17IPADataSerializerINS_3ipa8mali_c5513IPAConfigInfoEE9serializeERKS3_PNS_17ControlSerializerE W
_ZN9libcamera17IPADataSerializerINS_8SharedFDEE11deserializeEN9__gnu_cxx17__normal_iteratorIPKhSt6vectorIhSaIhEEEESA_NS4_IPKS1_S7_IS1_SaIS1_EEEESF_PNS_17ControlSerializerE T
_ZN9libcamera17IPADataSerializerINS_8SharedFDEE11deserializeERKSt6vectorIhSaIhEERKS3_IS1_SaIS1_EEPNS_17ControlSerializerE T
_ZN9libcamera17IPADataSerializerINS_8SharedFDEE9serializeERKS1_PNS_17ControlSerializerE T
_ZN9libcamera17IPADataSerializerINSt7__cxx1112basic_stringIcSt11char_traitsIcESaIcEEEE11deserializeEN9__gnu_cxx17__normal_iteratorIPKhSt6vectorIhSaIhEEEESF_NS9_IPKNS_8SharedFDESC_ISG_SaISG_EEEESL_PNS_17ControlSerializerE T
_ZN9libcamera17IPADataSerializerINSt7__cxx1112basic_stringIcSt11char_traitsIcESaIcEEEE11deserializeEN9__gnu_cxx17__normal_iteratorIPKhSt6vectorIhSaIhEEEESF_PNS_17ControlSerializerE T
_ZN9libcamera17IPADataSerializerINSt7__cxx1112basic_stringIcSt11char_traitsIcESaIcEEEE11deserializeERKSt6vectorIhSaIhEEPNS_17ControlSerializerE T
_ZN9libcamera17IPADataSerializerINSt7__cxx1112basic_stringIcSt11char_traitsIcESaIcEEEE11deserializeERKSt6vectorIhSaIhEERKS8_INS_8SharedFDESaISD_EEPNS_17ControlSerializerE T
_ZN9libcamera17IPADataSerializerINSt7__cxx1112basic_stringIcSt11char_traitsIcESaIcEEEE9serializeERKS6_PNS_17ControlSerializerE T
_ZN9libcamera17IPADataSerializerIsE11deserializeEN9__gnu_cxx17__normal_iteratorIPKhSt6vectorIhSaIhEEEES9_NS3_IPKNS_8SharedFDES6_ISA_SaISA_EEEESF_PNS_17ControlSerializerE T
_ZN9libcamera17IPADataSerializerIsE11deserializeEN9__gnu_cxx17__normal_iteratorIPKhSt6vectorIhSaIhEEEES9_PNS_17ControlSerializerE T
_ZN9libcamera17IPADataSerializerIsE11deserializeERKSt6vectorIhSaIhEEPNS_17ControlSerializerE T
_ZN9libcamera17IPADataSerializerIsE11deserializeERKSt6vectorIhSaIhEERKS2_INS_8SharedFDESaIS7_EEPNS_17ControlSerializerE T
_ZN9libcamera17IPADataSerializerIsE9serializeERKsPNS_17ControlSerializerE T
_ZN9libcamera17IPADataSerializerISt3mapIjNS_9IPAStreamESt4lessIjESaISt4pairIKjS2_EEEE9serializeERKS9_PNS_17ControlSerializerE W
_ZN9libcamera17IPADataSerializerISt6vectorINS_9IPABufferESaIS2_EEE9serializeERKS4_PNS_17ControlSerializerE W
_ZN9libcamera17IPADataSerializerItE11deserializeEN9__gnu_cxx17__normal_iteratorIPKhSt6vectorIhSaIhEEEES9_NS3_IPKNS_8SharedFDES6_ISA_SaISA_EEEESF_PNS_17ControlSerializerE T
_ZN9libcamera17IPADataSerializerItE11deserializeEN9__gnu_cxx17__normal_iteratorIPKhSt6vectorIhSaIhEEEES9_PNS_17ControlSerializerE T
_ZN9libcamera17IPADataSerializerItE11deserializeERKSt6vectorIhSaIhEEPNS_17ControlSerializerE T
_ZN9libcamera17IPADataSerializerItE11deserializeERKSt6vectorIhSaIhEERKS2_INS_8SharedFDESaIS7_EEPNS_17ControlSerializerE T
_ZN9libcamera17IPADataSerializerItE9serializeERKtPNS_17ControlSerializerE T
_ZN9libcamera17IPCPipeUnixSocket4callERKNS_13IPCUnixSocket7PayloadEPS2_j T
_ZN9libcamera17IPCPipeUnixSocket8sendSyncERKNS_10IPCMessageEPS1_ T
_ZN9libcamera17IPCPipeUnixSocket9readyReadEv T
_ZN9libcamera17IPCPipeUnixSocket9sendAsyncERKNS_10IPCMessageE T
_ZN9libcamera17IPCPipeUnixSocketC1EPKcS2_ T
_ZN9libcamera17IPCPipeUnixSocketC2EPKcS2_ T
_ZN9libcamera17IPCPipeUnixSocketD0Ev T
_ZN9libcamera17IPCPipeUnixSocketD1Ev T
_ZN9libcamera17IPCPipeUnixSocketD2Ev T
_ZN9libcamera17logCategoryBufferEv T
_ZN9libcamera17logCategoryCameraEv T
_ZN9libcamera17logCategoryMatrixEv T
_ZN9libcamera17logCategoryRkISP1Ev T
_ZN9libcamera17logCategoryStreamEv T
_ZN9libcamera17logCategoryVectorEv T
_ZN9libcamera17MaliC55CameraData11initTPGDataEv T
_ZN9libcamera17MaliC55CameraData14updateControlsERKNS_14ControlInfoMapE T
_ZN9libcamera17MaliC55CameraData17setSensorControlsERKNS_11ControlListE T
_ZN9libcamera17MaliC55CameraData4initEv T
_ZN9libcamera17MaliC55CameraData7loadIPAEv T
_ZN9libcamera17MaliC55CameraDataD0Ev W
_ZN9libcamera17MaliC55CameraDataD1Ev W
_ZN9libcamera17MaliC55CameraDataD2Ev W
_ZN9libcamera17MappedFrameBufferC1EPKNS_11FrameBufferENS_5FlagsINS0_7MapFlagEEE T
_ZN9libcamera17MappedFrameBufferC2EPKNS_11FrameBufferENS_5FlagsINS0_7MapFlagEEE T
_ZN9libcamera17transformToStringENS_9TransformE T
_ZN9libcamera17YamlParserContext12parseContentERNS_10YamlObjectE T
_ZN9libcamera17YamlParserContext19parseNextYamlObjectERNS_10YamlObjectESt10unique_ptrI12yaml_event_sNS0_12EventDeleterEE T
_ZN9libcamera17YamlParserContext21parseDictionaryOrListENS_10YamlObject4TypeERKSt8functionIFiSt10unique_ptrI12yaml_event_sNS0_12EventDeleterEEEE T
_ZN9libcamera17YamlParserContext4initERNS_4FileE T
_ZN9libcamera17YamlParserContext8yamlReadEPvPhmPm T
_ZN9libcamera17YamlParserContext9nextEventEv T
_ZN9libcamera17YamlParserContext9readValueERNSt7__cxx1112basic_stringIcSt11char_traitsIcESaIcEEESt10unique_ptrI12yaml_event_sNS0_12EventDeleterEE T
_ZN9libcamera17YamlParserContextC1Ev T
_ZN9libcamera17YamlParserContextC2Ev T
_ZN9libcamera17YamlParserContextD1Ev T
_ZN9libcamera17YamlParserContextD2Ev T
_ZN9libcamera18CameraSensorLegacy10generateIdEv T
_ZN9libcamera18CameraSensorLegacy11getControlsERKSt6vectorIjSaIjEE T
_ZN9libcamera18CameraSensorLegacy11setControlsEPNS_11ControlListE T
_ZN9libcamera18CameraSensorLegacy12sensorDelaysEv T
_ZN9libcamera18CameraSensorLegacy14initPropertiesEv T
_ZN9libcamera18CameraSensorLegacy18applyConfigurationERKNS_19SensorConfigurationENS_9TransformEPNS_19V4L2SubdeviceFormatE T
_ZN9libcamera18CameraSensorLegacy18setTestPatternModeENS_8controls5draft19TestPatternModeEnumE T
_ZN9libcamera18CameraSensorLegacy20applyTestPatternModeENS_8controls5draft19TestPatternModeEnumE T
_ZN9libcamera18CameraSensorLegacy20initStaticPropertiesEv T
_ZN9libcamera18CameraSensorLegacy20initTestPatternModesEv T
_ZN9libcamera18CameraSensorLegacy20validateSensorDriverEv T
_ZN9libcamera18CameraSensorLegacy24discoverAncillaryDevicesEv T
_ZN9libcamera18CameraSensorLegacy25initVimcDefaultPropertiesEv T
_ZN9libcamera18CameraSensorLegacy4initEv T
_ZN9libcamera18CameraSensorLegacy5matchEPNS_11MediaEntityE T
_ZN9libcamera18CameraSensorLegacy6deviceEv W
_ZN9libcamera18CameraSensorLegacy9focusLensEv W
_ZN9libcamera18CameraSensorLegacy9setFormatEPNS_19V4L2SubdeviceFormatENS_9TransformE T
_ZN9libcamera18CameraSensorLegacyC1EPKNS_11MediaEntityE T
_ZN9libcamera18CameraSensorLegacyC2EPKNS_11MediaEntityE T
_ZN9libcamera18CameraSensorLegacyD0Ev T
_ZN9libcamera18CameraSensorLegacyD1Ev T
_ZN9libcamera18CameraSensorLegacyD2Ev T
_ZN9libcamera18logCategoryDebayerEv T
_ZN9libcamera18logCategoryFormatsEv T
_ZN9libcamera18logCategoryIPCPipeEv T
_ZN9libcamera18logCategoryMaliC55Ev T
_ZN9libcamera18logCategoryProcessEv T
_ZN9libcamera18logCategoryRequestEv T
_ZN9libcamera18matrixValidateYamlERKNS_10YamlObjectEj T
_ZN9libcamera18MediaBusFormatInfo4infoEj T
_ZN9libcamera18PipelineHandlerISI10stopDeviceEPNS_6CameraE T
_ZN9libcamera18PipelineHandlerISI11bufferReadyEPNS_11FrameBufferE T
_ZN9libcamera18PipelineHandlerISI11kMinISISizeE u
_ZN9libcamera18PipelineHandlerISI14pipeFromStreamEPNS_6CameraEPKNS_6StreamE T
_ZN9libcamera18PipelineHandlerISI18exportFrameBuffersEPNS_6CameraEPNS_6StreamEPSt6vectorISt10unique_ptrINS_11FrameBufferESt14default_deleteIS7_EESaISA_EE T
_ZN9libcamera18PipelineHandlerISI18queueRequestDeviceEPNS_6CameraEPNS_7RequestE T
_ZN9libcamera18PipelineHandlerISI21generateConfigurationEPNS_6CameraENS_4SpanIKNS_10StreamRoleELm18446744073709551615EEE T
_ZN9libcamera18PipelineHandlerISI24generateRawConfigurationEPNS_6CameraE T
_ZN9libcamera18PipelineHandlerISI24generateYUVConfigurationEPNS_6CameraERKNS_4SizeE T
_ZN9libcamera18PipelineHandlerISI5matchEPNS_16DeviceEnumeratorE T
_ZN9libcamera18PipelineHandlerISI5startEPNS_6CameraEPKNS_11ControlListE T
_ZN9libcamera18PipelineHandlerISI9configureEPNS_6CameraEPNS_19CameraConfigurationE T
_ZN9libcamera18PipelineHandlerISIC1EPNS_13CameraManagerE T
_ZN9libcamera18PipelineHandlerISIC2EPNS_13CameraManagerE T
_ZN9libcamera18PipelineHandlerISID0Ev W
_ZN9libcamera18PipelineHandlerISID1Ev W
_ZN9libcamera18PipelineHandlerISID2Ev W
_ZN9libcamera18PipelineHandlerUVC10stopDeviceEPNS_6CameraE T
_ZN9libcamera18PipelineHandlerUVC13acquireDeviceEPNS_6CameraE T
_ZN9libcamera18PipelineHandlerUVC13releaseDeviceEPNS_6CameraE T
_ZN9libcamera18PipelineHandlerUVC14processControlEPKNS_13UVCCameraDataEPNS_11ControlListEjRKNS_12ControlValueE T
_ZN9libcamera18PipelineHandlerUVC15processControlsEPNS_13UVCCameraDataERKNS_11ControlListE T
_ZN9libcamera18PipelineHandlerUVC18exportFrameBuffersEPNS_6CameraEPNS_6StreamEPSt6vectorISt10unique_ptrINS_11FrameBufferESt14default_deleteIS7_EESaISA_EE T
_ZN9libcamera18PipelineHandlerUVC18queueRequestDeviceEPNS_6CameraEPNS_7RequestE T
_ZN9libcamera18PipelineHandlerUVC21generateConfigurationEPNS_6CameraENS_4SpanIKNS_10StreamRoleELm18446744073709551615EEE T
_ZN9libcamera18PipelineHandlerUVC5matchEPNS_16DeviceEnumeratorE T
_ZN9libcamera18PipelineHandlerUVC5startEPNS_6CameraEPKNS_11ControlListE T
_ZN9libcamera18PipelineHandlerUVC9configureEPNS_6CameraEPNS_19CameraConfigurationE T
_ZN9libcamera18PipelineHandlerUVCC1EPNS_13CameraManagerE T
_ZN9libcamera18PipelineHandlerUVCC2EPNS_13CameraManagerE T
_ZN9libcamera18PipelineHandlerUVCD0Ev W
_ZN9libcamera18PipelineHandlerUVCD1Ev W
_ZN9libcamera18PipelineHandlerUVCD2Ev W
_ZN9libcamera18PipelineHandlerVc414prepareBuffersEPNS_6CameraE T
_ZN9libcamera18PipelineHandlerVc416platformRegisterERSt10unique_ptrINS_3RPi10CameraDataESt14default_deleteIS3_EEPNS_11MediaDeviceES9_ T
_ZN9libcamera18PipelineHandlerVc45matchEPNS_16DeviceEnumeratorE T
_ZN9libcamera18PipelineHandlerVc4D0Ev W
_ZN9libcamera18PipelineHandlerVc4D1Ev W
_ZN9libcamera18PipelineHandlerVc4D2Ev W
_ZN9libcamera18vectorValidateYamlERKNS_10YamlObjectEj T
_ZN9libcamera19CameraConfiguration16addConfigurationERKNS_19StreamConfigurationE T
_ZN9libcamera19CameraConfiguration19validateColorSpacesENS_5FlagsINS0_14ColorSpaceFlagEEE T
_ZN9libcamera19CameraConfiguration2atEj T
_ZN9libcamera19CameraConfiguration3endEv T
_ZN9libcamera19CameraConfiguration5beginEv T
_ZN9libcamera19CameraConfigurationC1Ev T
_ZN9libcamera19CameraConfigurationC2Ev T
_ZN9libcamera19CameraConfigurationD0Ev T
_ZN9libcamera19CameraConfigurationD1Ev T
_ZN9libcamera19CameraConfigurationD2Ev T
_ZN9libcamera19CameraSensorFactoryINS_15CameraSensorRawEED0Ev W
_ZN9libcamera19CameraSensorFactoryINS_15CameraSensorRawEED1Ev W
_ZN9libcamera19CameraSensorFactoryINS_15CameraSensorRawEED2Ev W
_ZN9libcamera19CameraSensorFactoryINS_18CameraSensorLegacyEED0Ev W
_ZN9libcamera19CameraSensorFactoryINS_18CameraSensorLegacyEED1Ev W
_ZN9libcamera19CameraSensorFactoryINS_18CameraSensorLegacyEED2Ev W
_ZN9libcamera19logCategoryClockRecEv T
_ZN9libcamera19logCategoryControlsEv T
_ZN9libcamera19logCategoryIPAProxyEv T
_ZN9libcamera19logCategoryPipelineEv T
_ZN9libcamera19PipelineHandlerPiSP14prepareBuffersEPNS_6CameraE T
_ZN9libcamera19PipelineHandlerPiSP16platformRegisterERSt10unique_ptrINS_3RPi10CameraDataESt14default_deleteIS3_EEPNS_11MediaDeviceES9_ T
_ZN9libcamera19PipelineHandlerPiSP5matchEPNS_16DeviceEnumeratorE T
_ZN9libcamera19PipelineHandlerPiSPD0Ev W
_ZN9libcamera19PipelineHandlerPiSPD1Ev W
_ZN9libcamera19PipelineHandlerPiSPD2Ev W
_ZN9libcamera19StreamConfigurationC1ERKNS_13StreamFormatsE T
_ZN9libcamera19StreamConfigurationC1Ev T
_ZN9libcamera19StreamConfigurationC2ERKNS_13StreamFormatsE T
_ZN9libcamera19StreamConfigurationC2Ev T
_ZN9libcamera20ConverterFactoryBase12registerTypeEPS0_ T
_ZN9libcamera20ConverterFactoryBase5namesB5cxx11Ev T
_ZN9libcamera20ConverterFactoryBase6createEPNS_11MediaDeviceE T
_ZN9libcamera20ConverterFactoryBase9factoriesEv T
_ZN9libcamera20ConverterFactoryBaseC1ENSt7__cxx1112basic_stringIcSt11char_traitsIcESaIcEEESt16initializer_listIS6_E T
_ZN9libcamera20ConverterFactoryBaseC2ENSt7__cxx1112basic_stringIcSt11char_traitsIcESaIcEEESt16initializer_listIS6_E T
_ZN9libcamera20DeviceEnumeratorUdev10udevNotifyEv T
_ZN9libcamera20DeviceEnumeratorUdev13addUdevDeviceEP11udev_device T
_ZN9libcamera20DeviceEnumeratorUdev13addV4L2DeviceEm T
_ZN9libcamera20DeviceEnumeratorUdev16lookupDeviceNodeB5cxx11Em T
_ZN9libcamera20DeviceEnumeratorUdev19populateMediaDeviceEPNS_11MediaDeviceEPSt3mapImNSt7__cxx114listIPNS_11MediaEntityESaIS7_EEESt4lessImESaISt4pairIKmS9_EEE T
_ZN9libcamera20DeviceEnumeratorUdev4initEv T
_ZN9libcamera20DeviceEnumeratorUdev9enumerateEv T
_ZN9libcamera20DeviceEnumeratorUdevC1Ev T
_ZN9libcamera20DeviceEnumeratorUdevC2Ev T
_ZN9libcamera20DeviceEnumeratorUdevD0Ev T
_ZN9libcamera20DeviceEnumeratorUdevD1Ev T
_ZN9libcamera20DeviceEnumeratorUdevD2Ev T
_ZN9libcamera20FrameBufferAllocator4freeEPNS_6StreamE T
_ZN9libcamera20FrameBufferAllocator8allocateEPNS_6StreamE T
_ZN9libcamera20FrameBufferAllocatorC1ESt10shared_ptrINS_6CameraEE T
_ZN9libcamera20FrameBufferAllocatorC2ESt10shared_ptrINS_6CameraEE T
_ZN9libcamera20FrameBufferAllocatorD1Ev T
_ZN9libcamera20FrameBufferAllocatorD2Ev T
_ZN9libcamera20logCategoryAllocatorEv T
_ZN9libcamera20logCategoryConverterEv T
_ZN9libcamera20logCategoryIPAModuleEv T
_ZN9libcamera20logCategoryRPISTREAMEv T
_ZN9libcamera21DeviceEnumeratorSysfs16lookupDeviceNodeB5cxx11Eii T
_ZN9libcamera21DeviceEnumeratorSysfs19populateMediaDeviceEPNS_11MediaDeviceE T
_ZN9libcamera21DeviceEnumeratorSysfs4initEv T
_ZN9libcamera21DeviceEnumeratorSysfs9enumerateEv T
_ZN9libcamera21DeviceEnumeratorSysfsD0Ev W
_ZN9libcamera21DeviceEnumeratorSysfsD1Ev W
_ZN9libcamera21DeviceEnumeratorSysfsD2Ev W
_ZN9libcamera21logCategoryCameraLensEv T
_ZN9libcamera21logCategoryIPAManagerEv T
_ZN9libcamera21logCategorySerializerEv T
_ZN9libcamera21logCategorySwStatsCpuEv T
_ZN9libcamera21logCategoryYamlParserEv T
_ZN9libcamera21PipelineHandlerRkISP110stopDeviceEPNS_6CameraE T
_ZN9libcamera21PipelineHandlerRkISP111freeBuffersEPNS_6CameraE T
_ZN9libcamera21PipelineHandlerRkISP112createCameraEPNS_11MediaEntityE T
_ZN9libcamera21PipelineHandlerRkISP114updateControlsEPNS_16RkISP1CameraDataE T
_ZN9libcamera21PipelineHandlerRkISP115allocateBuffersEPNS_6CameraE T
_ZN9libcamera21PipelineHandlerRkISP115statBufferReadyEPNS_11FrameBufferE T
_ZN9libcamera21PipelineHandlerRkISP116imageBufferReadyEPNS_11FrameBufferE T
_ZN9libcamera21PipelineHandlerRkISP116paramBufferReadyEPNS_11FrameBufferE T
_ZN9libcamera21PipelineHandlerRkISP117dewarpBufferReadyEPNS_11FrameBufferE T
_ZN9libcamera21PipelineHandlerRkISP118exportFrameBuffersEPNS_6CameraEPNS_6StreamEPSt6vectorISt10unique_ptrINS_11FrameBufferESt14default_deleteIS7_EESaISA_EE T
_ZN9libcamera21PipelineHandlerRkISP118queueRequestDeviceEPNS_6CameraEPNS_7RequestE T
_ZN9libcamera21PipelineHandlerRkISP118tryCompleteRequestEPNS_15RkISP1FrameInfoE T
_ZN9libcamera21PipelineHandlerRkISP121generateConfigurationEPNS_6CameraENS_4SpanIKNS_10StreamRoleELm18446744073709551615EEE T
_ZN9libcamera21PipelineHandlerRkISP15matchEPNS_16DeviceEnumeratorE T
_ZN9libcamera21PipelineHandlerRkISP15startEPNS_6CameraEPKNS_11ControlListE T
_ZN9libcamera21PipelineHandlerRkISP19configureEPNS_6CameraEPNS_19CameraConfigurationE T
_ZN9libcamera21PipelineHandlerRkISP19initLinksEPNS_6CameraERKNS_25RkISP1CameraConfigurationE T
_ZN9libcamera21PipelineHandlerRkISP1C1EPNS_13CameraManagerE T
_ZN9libcamera21PipelineHandlerRkISP1C2EPNS_13CameraManagerE T
_ZN9libcamera21PipelineHandlerRkISP1D0Ev W
_ZN9libcamera21PipelineHandlerRkISP1D1Ev W
_ZN9libcamera21PipelineHandlerRkISP1D2Ev W
_ZN9libcamera21SimplePipelineHandler10stopDeviceEPNS_6CameraE T
_ZN9libcamera21SimplePipelineHandler13locateSensorsEPNS_11MediaDeviceE T
_ZN9libcamera21SimplePipelineHandler15acquirePipelineEPNS_16SimpleCameraDataE T
_ZN9libcamera21SimplePipelineHandler15releasePipelineEPNS_16SimpleCameraDataE T
_ZN9libcamera21SimplePipelineHandler17resetRoutingTableEPNS_13V4L2SubdeviceE T
_ZN9libcamera21SimplePipelineHandler18exportFrameBuffersEPNS_6CameraEPNS_6StreamEPSt6vectorISt10unique_ptrINS_11FrameBufferESt14default_deleteIS7_EESaISA_EE T
_ZN9libcamera21SimplePipelineHandler18queueRequestDeviceEPNS_6CameraEPNS_7RequestE T
_ZN9libcamera21SimplePipelineHandler21generateConfigurationEPNS_6CameraENS_4SpanIKNS_10StreamRoleELm18446744073709551615EEE T
_ZN9libcamera21SimplePipelineHandler5matchEPNS_16DeviceEnumeratorE T
_ZN9libcamera21SimplePipelineHandler5startEPNS_6CameraEPKNS_11ControlListE T
_ZN9libcamera21SimplePipelineHandler5videoEPKNS_11MediaEntityE T
_ZN9libcamera21SimplePipelineHandler6subdevEPKNS_11MediaEntityE T
_ZN9libcamera21SimplePipelineHandler9configureEPNS_6CameraEPNS_19CameraConfigurationE T
_ZN9libcamera21SimplePipelineHandlerC1EPNS_13CameraManagerE T
_ZN9libcamera21SimplePipelineHandlerC2EPNS_13CameraManagerE T
_ZN9libcamera21SimplePipelineHandlerD0Ev W
_ZN9libcamera21SimplePipelineHandlerD1Ev W
_ZN9libcamera21SimplePipelineHandlerD2Ev W
_ZN9libcamera21transformFromRotationEiPb T
_ZN9libcamera22CameraControlValidatorC1EPNS_6CameraE T
_ZN9libcamera22CameraControlValidatorC2EPNS_6CameraE T
_ZN9libcamera22CameraControlValidatorD0Ev W
_ZN9libcamera22CameraControlValidatorD1Ev W
_ZN9libcamera22CameraControlValidatorD2Ev W
_ZN9libcamera22CameraSensorProperties3getERKNSt7__cxx1112basic_stringIcSt11char_traitsIcESaIcEEE T
_ZN9libcamera22ISICameraConfiguration11formatsMap_E B 30
_ZN9libcamera22ISICameraConfiguration11validateRawERSt3setIPNS_6StreamESt4lessIS3_ESaIS3_EERKNS_4SizeE T
_ZN9libcamera22ISICameraConfiguration11validateYuvERSt3setIPNS_6StreamESt4lessIS3_ESaIS3_EERKNS_4SizeE T
_ZN9libcamera22ISICameraConfiguration8validateEv T
_ZN9libcamera22ISICameraConfigurationD0Ev W
_ZN9libcamera22ISICameraConfigurationD1Ev W
_ZN9libcamera22ISICameraConfigurationD2Ev W
_ZN9libcamera22logCategoryMediaDeviceEv T
_ZN9libcamera22logCategorySoftwareIspEv T
_ZN9libcamera22PipelineHandlerFactoryINS_18PipelineHandlerISIEED0Ev W
_ZN9libcamera22PipelineHandlerFactoryINS_18PipelineHandlerISIEED1Ev W
_ZN9libcamera22PipelineHandlerFactoryINS_18PipelineHandlerISIEED2Ev W
_ZN9libcamera22PipelineHandlerFactoryINS_18PipelineHandlerUVCEED0Ev W
_ZN9libcamera22PipelineHandlerFactoryINS_18PipelineHandlerUVCEED1Ev W
_ZN9libcamera22PipelineHandlerFactoryINS_18PipelineHandlerUVCEED2Ev W
_ZN9libcamera22PipelineHandlerFactoryINS_18PipelineHandlerVc4EED0Ev W
_ZN9libcamera22PipelineHandlerFactoryINS_18PipelineHandlerVc4EED1Ev W
_ZN9libcamera22PipelineHandlerFactoryINS_18PipelineHandlerVc4EED2Ev W
_ZN9libcamera22PipelineHandlerFactoryINS_19PipelineHandlerPiSPEED0Ev W
_ZN9libcamera22PipelineHandlerFactoryINS_19PipelineHandlerPiSPEED1Ev W
_ZN9libcamera22PipelineHandlerFactoryINS_19PipelineHandlerPiSPEED2Ev W
_ZN9libcamera22PipelineHandlerFactoryINS_21PipelineHandlerRkISP1EED0Ev W
_ZN9libcamera22PipelineHandlerFactoryINS_21PipelineHandlerRkISP1EED1Ev W
_ZN9libcamera22PipelineHandlerFactoryINS_21PipelineHandlerRkISP1EED2Ev W
_ZN9libcamera22PipelineHandlerFactoryINS_21SimplePipelineHandlerEED0Ev W
_ZN9libcamera22PipelineHandlerFactoryINS_21SimplePipelineHandlerEED1Ev W
_ZN9libcamera22PipelineHandlerFactoryINS_21SimplePipelineHandlerEED2Ev W
_ZN9libcamera22PipelineHandlerFactoryINS_22PipelineHandlerMaliC55EED0Ev W
_ZN9libcamera22PipelineHandlerFactoryINS_22PipelineHandlerMaliC55EED1Ev W
_ZN9libcamera22PipelineHandlerFactoryINS_22PipelineHandlerMaliC55EED2Ev W
_ZN9libcamera22PipelineHandlerMaliC5510stopDeviceEPNS_6CameraE T
_ZN9libcamera22PipelineHandlerMaliC5511freeBuffersEPNS_6CameraE T
_ZN9libcamera22PipelineHandlerMaliC5511tryCompleteEPNS_16MaliC55FrameInfoE T
_ZN9libcamera22PipelineHandlerMaliC5513findFrameInfoEPNS_11FrameBufferE T
_ZN9libcamera22PipelineHandlerMaliC5513findFrameInfoEPNS_7RequestE T
_ZN9libcamera22PipelineHandlerMaliC5514paramsComputedEj T
_ZN9libcamera22PipelineHandlerMaliC5514pipeFromStreamEPNS_17MaliC55CameraDataEPNS_6StreamE W
_ZN9libcamera22PipelineHandlerMaliC5514statsProcessedEjRKNS_11ControlListE T
_ZN9libcamera22PipelineHandlerMaliC5515allocateBuffersEPNS_6CameraE T
_ZN9libcamera22PipelineHandlerMaliC5515applyScalerCropEPNS_6CameraERKNS_11ControlListE T
_ZN9libcamera22PipelineHandlerMaliC5516imageBufferReadyEPNS_11FrameBufferE T
_ZN9libcamera22PipelineHandlerMaliC5516statsBufferReadyEPNS_11FrameBufferE T
_ZN9libcamera22PipelineHandlerMaliC5517paramsBufferReadyEPNS_11FrameBufferE T
_ZN9libcamera22PipelineHandlerMaliC5517registerTPGCameraEPNS_9MediaLinkE T
_ZN9libcamera22PipelineHandlerMaliC5518configureRawStreamEPNS_17MaliC55CameraDataERKNS_19StreamConfigurationERNS_19V4L2SubdeviceFormatE T
_ZN9libcamera22PipelineHandlerMaliC5518exportFrameBuffersEPNS_6CameraEPNS_6StreamEPSt6vectorISt10unique_ptrINS_11FrameBufferESt14default_deleteIS7_EESaISA_EE T
_ZN9libcamera22PipelineHandlerMaliC5518queueRequestDeviceEPNS_6CameraEPNS_7RequestE T
_ZN9libcamera22PipelineHandlerMaliC5518registerMaliCameraESt10unique_ptrINS_17MaliC55CameraDataESt14default_deleteIS2_EERKNSt7__cxx1112basic_stringIcSt11char_traitsIcESaIcEEE T
_ZN9libcamera22PipelineHandlerMaliC5520registerSensorCameraEPNS_9MediaLinkE T
_ZN9libcamera22PipelineHandlerMaliC5521generateConfigurationEPNS_6CameraENS_4SpanIKNS_10StreamRoleELm18446744073709551615EEE T
_ZN9libcamera22PipelineHandlerMaliC5524configureProcessedStreamEPNS_17MaliC55CameraDataERKNS_19StreamConfigurationERNS_19V4L2SubdeviceFormatE T
_ZN9libcamera22PipelineHandlerMaliC555matchEPNS_16DeviceEnumeratorE T
_ZN9libcamera22PipelineHandlerMaliC555startEPNS_6CameraEPKNS_11ControlListE T
_ZN9libcamera22PipelineHandlerMaliC559configureEPNS_6CameraEPNS_19CameraConfigurationE T
_ZN9libcamera22PipelineHandlerMaliC55C1EPNS_13CameraManagerE T
_ZN9libcamera22PipelineHandlerMaliC55C2EPNS_13CameraManagerE T
_ZN9libcamera22PipelineHandlerMaliC55D0Ev W
_ZN9libcamera22PipelineHandlerMaliC55D1Ev W
_ZN9libcamera22PipelineHandlerMaliC55D2Ev W
_ZN9libcamera22UVCCameraConfiguration8validateEv T
_ZN9libcamera22UVCCameraConfigurationC1EPNS_13UVCCameraDataE T
_ZN9libcamera22UVCCameraConfigurationC2EPNS_13UVCCameraDataE T
_ZN9libcamera22UVCCameraConfigurationD0Ev W
_ZN9libcamera22UVCCameraConfigurationD1Ev W
_ZN9libcamera22UVCCameraConfigurationD2Ev W
_ZN9libcamera23CameraSensorFactoryBase15registerFactoryEPS0_ T
_ZN9libcamera23CameraSensorFactoryBase6createEPNS_11MediaEntityE T
_ZN9libcamera23CameraSensorFactoryBase9factoriesEv T
_ZN9libcamera23CameraSensorFactoryBaseC1EPKci T
_ZN9libcamera23CameraSensorFactoryBaseC2EPKci T
_ZN9libcamera23logCategoryCameraSensorEv T
_ZN9libcamera23orientationFromRotationEiPb T
_ZN9libcamera24logCategoryDebugControlsEv T
_ZN9libcamera24logCategoryIPCUnixSocketEv T
_ZN9libcamera24logCategoryMediaPipelineEv T
_ZN9libcamera24logCategorySerializationEv T
_ZN9libcamera25logCategorySimplePipelineEv T
_ZN9libcamera25RkISP1CameraConfiguration12fitsAllPathsERKNS_19StreamConfigurationE T
_ZN9libcamera25RkISP1CameraConfiguration8validateEv T
_ZN9libcamera25RkISP1CameraConfigurationC1EPNS_6CameraEPNS_16RkISP1CameraDataE T
_ZN9libcamera25RkISP1CameraConfigurationC2EPNS_6CameraEPNS_16RkISP1CameraDataE T
_ZN9libcamera25RkISP1CameraConfigurationD0Ev W
_ZN9libcamera25RkISP1CameraConfigurationD1Ev W
_ZN9libcamera25RkISP1CameraConfigurationD2Ev W
_ZN9libcamera25SimpleCameraConfiguration8validateEv T
_ZN9libcamera25SimpleCameraConfigurationC1EPNS_6CameraEPNS_16SimpleCameraDataE T
_ZN9libcamera25SimpleCameraConfigurationC2EPNS_6CameraEPNS_16SimpleCameraDataE T
_ZN9libcamera25SimpleCameraConfigurationD0Ev W
_ZN9libcamera25SimpleCameraConfigurationD1Ev W
_ZN9libcamera25SimpleCameraConfigurationD2Ev W
_ZN9libcamera26logCategoryDelayedControlsEv T
_ZN9libcamera26logCategoryDmaBufAllocatorEv T
_ZN9libcamera26MaliC55CameraConfiguration8validateEv T
_ZN9libcamera26MaliC55CameraConfigurationD0Ev W
_ZN9libcamera26MaliC55CameraConfigurationD1Ev W
_ZN9libcamera26MaliC55CameraConfigurationD2Ev W
_ZN9libcamera26PipelineHandlerFactoryBase12registerTypeEPS0_ T
_ZN9libcamera26PipelineHandlerFactoryBase16getFactoryByNameERKNSt7__cxx1112basic_stringIcSt11char_traitsIcESaIcEEE T
_ZN9libcamera26PipelineHandlerFactoryBase9factoriesEv T
_ZN9libcamera26PipelineHandlerFactoryBaseC1EPKc T
_ZN9libcamera26PipelineHandlerFactoryBaseC2EPKc T
_ZN9libcamera27logCategoryDeviceEnumeratorEv T
_ZN9libcamera28logCategoryIPADataSerializerEv T
_ZN9libcamera29logCategoryRPiDelayedControlsEv T
_ZN9libcamera33logCategoryCameraSensorPropertiesEv T
_ZN9libcamera3ipa3RPi11IPAProxyRPi10initThreadERKNS_11IPASettingsERKNS1_10InitParamsEPNS1_10InitResultE T
_ZN9libcamera3ipa3RPi11IPAProxyRPi10mapBuffersERKSt6vectorINS_9IPABufferESaIS4_EE T
_ZN9libcamera3ipa3RPi11IPAProxyRPi10prepareIspERKNS1_13PrepareParamsE T
_ZN9libcamera3ipa3RPi11IPAProxyRPi10stopThreadEv T
_ZN9libcamera3ipa3RPi11IPAProxyRPi11recvMessageERKNS_10IPCMessageE T
_ZN9libcamera3ipa3RPi11IPAProxyRPi11startThreadERKNS_11ControlListEPNS1_11StartResultE T
_ZN9libcamera3ipa3RPi11IPAProxyRPi11ThreadProxy10prepareIspERKNS1_13PrepareParamsE W
_ZN9libcamera3ipa3RPi11IPAProxyRPi11ThreadProxy12processStatsERKNS1_13ProcessParamsE W
_ZN9libcamera3ipa3RPi11IPAProxyRPi11ThreadProxy4stopEv W
_ZN9libcamera3ipa3RPi11IPAProxyRPi11ThreadProxy5startERKNS_11ControlListEPNS1_11StartResultE W
_ZN9libcamera3ipa3RPi11IPAProxyRPi11ThreadProxyD0Ev W
_ZN9libcamera3ipa3RPi11IPAProxyRPi11ThreadProxyD1Ev W
_ZN9libcamera3ipa3RPi11IPAProxyRPi11ThreadProxyD2Ev W
_ZN9libcamera3ipa3RPi11IPAProxyRPi12configureIPCERKNS_19IPACameraSensorInfoERKNS1_12ConfigParamsEPNS1_12ConfigResultE T
_ZN9libcamera3ipa3RPi11IPAProxyRPi12processStatsERKNS1_13ProcessParamsE T
_ZN9libcamera3ipa3RPi11IPAProxyRPi12unmapBuffersERKSt6vectorIjSaIjEE T
_ZN9libcamera3ipa3RPi11IPAProxyRPi13mapBuffersIPCERKSt6vectorINS_9IPABufferESaIS4_EE T
_ZN9libcamera3ipa3RPi11IPAProxyRPi13prepareIspIPCERKNS1_13PrepareParamsE T
_ZN9libcamera3ipa3RPi11IPAProxyRPi15configureThreadERKNS_19IPACameraSensorInfoERKNS1_12ConfigParamsEPNS1_12ConfigResultE T
_ZN9libcamera3ipa3RPi11IPAProxyRPi15processStatsIPCERKNS1_13ProcessParamsE T
_ZN9libcamera3ipa3RPi11IPAProxyRPi15unmapBuffersIPCERKSt6vectorIjSaIjEE T
_ZN9libcamera3ipa3RPi11IPAProxyRPi16mapBuffersThreadERKSt6vectorINS_9IPABufferESaIS4_EE T
_ZN9libcamera3ipa3RPi11IPAProxyRPi16metadataReadyIPCEN9__gnu_cxx17__normal_iteratorIPKhSt6vectorIhSaIhEEEEmRKS7_INS_8SharedFDESaISB_EE T
_ZN9libcamera3ipa3RPi11IPAProxyRPi16prepareIspThreadERKNS1_13PrepareParamsE T
_ZN9libcamera3ipa3RPi11IPAProxyRPi17setIspControlsIPCEN9__gnu_cxx17__normal_iteratorIPKhSt6vectorIhSaIhEEEEmRKS7_INS_8SharedFDESaISB_EE T
_ZN9libcamera3ipa3RPi11IPAProxyRPi18processStatsThreadERKNS1_13ProcessParamsE T
_ZN9libcamera3ipa3RPi11IPAProxyRPi18setLensControlsIPCEN9__gnu_cxx17__normal_iteratorIPKhSt6vectorIhSaIhEEEEmRKS7_INS_8SharedFDESaISB_EE T
_ZN9libcamera3ipa3RPi11IPAProxyRPi18unmapBuffersThreadERKSt6vectorIjSaIjEE T
_ZN9libcamera3ipa3RPi11IPAProxyRPi19metadataReadyThreadERKNS_11ControlListE T
_ZN9libcamera3ipa3RPi11IPAProxyRPi19setCameraTimeoutIPCEN9__gnu_cxx17__normal_iteratorIPKhSt6vectorIhSaIhEEEEmRKS7_INS_8SharedFDESaISB_EE T
_ZN9libcamera3ipa3RPi11IPAProxyRPi20setIspControlsThreadERKNS_11ControlListE T
_ZN9libcamera3ipa3RPi11IPAProxyRPi21prepareIspCompleteIPCEN9__gnu_cxx17__normal_iteratorIPKhSt6vectorIhSaIhEEEEmRKS7_INS_8SharedFDESaISB_EE T
_ZN9libcamera3ipa3RPi11IPAProxyRPi21setDelayedControlsIPCEN9__gnu_cxx17__normal_iteratorIPKhSt6vectorIhSaIhEEEEmRKS7_INS_8SharedFDESaISB_EE T
_ZN9libcamera3ipa3RPi11IPAProxyRPi21setLensControlsThreadERKNS_11ControlListE T
_ZN9libcamera3ipa3RPi11IPAProxyRPi22setCameraTimeoutThreadEj T
_ZN9libcamera3ipa3RPi11IPAProxyRPi23processStatsCompleteIPCEN9__gnu_cxx17__normal_iteratorIPKhSt6vectorIhSaIhEEEEmRKS7_INS_8SharedFDESaISB_EE T
_ZN9libcamera3ipa3RPi11IPAProxyRPi24prepareIspCompleteThreadERKNS1_9BufferIdsEb T
_ZN9libcamera3ipa3RPi11IPAProxyRPi24setDelayedControlsThreadERKNS_11ControlListEj T
_ZN9libcamera3ipa3RPi11IPAProxyRPi26processStatsCompleteThreadERKNS1_9BufferIdsE T
_ZN9libcamera3ipa3RPi11IPAProxyRPi4initERKNS_11IPASettingsERKNS1_10InitParamsEPNS1_10InitResultE T
_ZN9libcamera3ipa3RPi11IPAProxyRPi4stopEv T
_ZN9libcamera3ipa3RPi11IPAProxyRPi5startERKNS_11ControlListEPNS1_11StartResultE T
_ZN9libcamera3ipa3RPi11IPAProxyRPi7initIPCERKNS_11IPASettingsERKNS1_10InitParamsEPNS1_10InitResultE T
_ZN9libcamera3ipa3RPi11IPAProxyRPi7stopIPCEv T
_ZN9libcamera3ipa3RPi11IPAProxyRPi8startIPCERKNS_11ControlListEPNS1_11StartResultE T
_ZN9libcamera3ipa3RPi11IPAProxyRPi9configureERKNS_19IPACameraSensorInfoERKNS1_12ConfigParamsEPNS1_12ConfigResultE T
_ZN9libcamera3ipa3RPi11IPAProxyRPiC1EPNS_9IPAModuleEb T
_ZN9libcamera3ipa3RPi11IPAProxyRPiC2EPNS_9IPAModuleEb T
_ZN9libcamera3ipa3RPi11IPAProxyRPiD0Ev T
_ZN9libcamera3ipa3RPi11IPAProxyRPiD1Ev T
_ZN9libcamera3ipa3RPi11IPAProxyRPiD2Ev T
_ZN9libcamera3ipa3RPi12ConfigParamsD1Ev W
_ZN9libcamera3ipa3RPi12ConfigParamsD2Ev W
_ZN9libcamera3ipa3RPi12ConfigResultD1Ev W
_ZN9libcamera3ipa3RPi12ConfigResultD2Ev W
_ZN9libcamera3ipa3RPi13PrepareParamsD1Ev W
_ZN9libcamera3ipa3RPi13PrepareParamsD2Ev W
_ZN9libcamera3ipa3RPi15IPARPiInterfaceD0Ev W
_ZN9libcamera3ipa3RPi15IPARPiInterfaceD1Ev W
_ZN9libcamera3ipa3RPi15IPARPiInterfaceD2Ev W
_ZN9libcamera3ipa4soft12IPAProxySoft10initThreadERKNS_11IPASettingsERKNS_8SharedFDES8_RKNS_19IPACameraSensorInfoERKNS_14ControlInfoMapEPSC_Pb T
_ZN9libcamera3ipa4soft12IPAProxySoft10stopThreadEv T
_ZN9libcamera3ipa4soft12IPAProxySoft11recvMessageERKNS_10IPCMessageE T
_ZN9libcamera3ipa4soft12IPAProxySoft11startThreadEv T
_ZN9libcamera3ipa4soft12IPAProxySoft11ThreadProxy12processStatsEjjRKNS_11ControlListE W
_ZN9libcamera3ipa4soft12IPAProxySoft11ThreadProxy12queueRequestEjRKNS_11ControlListE W
_ZN9libcamera3ipa4soft12IPAProxySoft11ThreadProxy13computeParamsEj W
_ZN9libcamera3ipa4soft12IPAProxySoft11ThreadProxy4stopEv W
_ZN9libcamera3ipa4soft12IPAProxySoft11ThreadProxy5startEv W
_ZN9libcamera3ipa4soft12IPAProxySoft11ThreadProxyD0Ev W
_ZN9libcamera3ipa4soft12IPAProxySoft11ThreadProxyD1Ev W
_ZN9libcamera3ipa4soft12IPAProxySoft11ThreadProxyD2Ev W
_ZN9libcamera3ipa4soft12IPAProxySoft12configureIPCERKNS1_13IPAConfigInfoE T
_ZN9libcamera3ipa4soft12IPAProxySoft12processStatsEjjRKNS_11ControlListE T
_ZN9libcamera3ipa4soft12IPAProxySoft12queueRequestEjRKNS_11ControlListE T
_ZN9libcamera3ipa4soft12IPAProxySoft13computeParamsEj T
_ZN9libcamera3ipa4soft12IPAProxySoft15configureThreadERKNS1_13IPAConfigInfoE T
_ZN9libcamera3ipa4soft12IPAProxySoft15processStatsIPCEjjRKNS_11ControlListE T
_ZN9libcamera3ipa4soft12IPAProxySoft15queueRequestIPCEjRKNS_11ControlListE T
_ZN9libcamera3ipa4soft12IPAProxySoft15setIspParamsIPCEN9__gnu_cxx17__normal_iteratorIPKhSt6vectorIhSaIhEEEEmRKS7_INS_8SharedFDESaISB_EE T
_ZN9libcamera3ipa4soft12IPAProxySoft16computeParamsIPCEj T
_ZN9libcamera3ipa4soft12IPAProxySoft16metadataReadyIPCEN9__gnu_cxx17__normal_iteratorIPKhSt6vectorIhSaIhEEEEmRKS7_INS_8SharedFDESaISB_EE T
_ZN9libcamera3ipa4soft12IPAProxySoft18processStatsThreadEjjRKNS_11ControlListE T
_ZN9libcamera3ipa4soft12IPAProxySoft18queueRequestThreadEjRKNS_11ControlListE T
_ZN9libcamera3ipa4soft12IPAProxySoft18setIspParamsThreadEv T
_ZN9libcamera3ipa4soft12IPAProxySoft19computeParamsThreadEj T
_ZN9libcamera3ipa4soft12IPAProxySoft19metadataReadyThreadEjRKNS_11ControlListE T
_ZN9libcamera3ipa4soft12IPAProxySoft20setSensorControlsIPCEN9__gnu_cxx17__normal_iteratorIPKhSt6vectorIhSaIhEEEEmRKS7_INS_8SharedFDESaISB_EE T
_ZN9libcamera3ipa4soft12IPAProxySoft23setSensorControlsThreadERKNS_11ControlListE T
_ZN9libcamera3ipa4soft12IPAProxySoft4initERKNS_11IPASettingsERKNS_8SharedFDES8_RKNS_19IPACameraSensorInfoERKNS_14ControlInfoMapEPSC_Pb T
_ZN9libcamera3ipa4soft12IPAProxySoft4stopEv T
_ZN9libcamera3ipa4soft12IPAProxySoft5startEv T
_ZN9libcamera3ipa4soft12IPAProxySoft7initIPCERKNS_11IPASettingsERKNS_8SharedFDES8_RKNS_19IPACameraSensorInfoERKNS_14ControlInfoMapEPSC_Pb T
_ZN9libcamera3ipa4soft12IPAProxySoft7stopIPCEv T
_ZN9libcamera3ipa4soft12IPAProxySoft8startIPCEv T
_ZN9libcamera3ipa4soft12IPAProxySoft9configureERKNS1_13IPAConfigInfoE T
_ZN9libcamera3ipa4soft12IPAProxySoftC1EPNS_9IPAModuleEb T
_ZN9libcamera3ipa4soft12IPAProxySoftC2EPNS_9IPAModuleEb T
_ZN9libcamera3ipa4soft12IPAProxySoftD0Ev T
_ZN9libcamera3ipa4soft12IPAProxySoftD1Ev T
_ZN9libcamera3ipa4soft12IPAProxySoftD2Ev T
_ZN9libcamera3ipa4soft16IPASoftInterfaceD0Ev W
_ZN9libcamera3ipa4soft16IPASoftInterfaceD1Ev W
_ZN9libcamera3ipa4soft16IPASoftInterfaceD2Ev W
_ZN9libcamera3ipa6rkisp114IPAProxyRkISP110initThreadERKNS_11IPASettingsEjRKNS_19IPACameraSensorInfoERKNS_14ControlInfoMapEPS9_ T
_ZN9libcamera3ipa6rkisp114IPAProxyRkISP110mapBuffersERKSt6vectorINS_9IPABufferESaIS4_EE T
_ZN9libcamera3ipa6rkisp114IPAProxyRkISP110stopThreadEv T
_ZN9libcamera3ipa6rkisp114IPAProxyRkISP111recvMessageERKNS_10IPCMessageE T
_ZN9libcamera3ipa6rkisp114IPAProxyRkISP111startThreadEv T
_ZN9libcamera3ipa6rkisp114IPAProxyRkISP111ThreadProxy12processStatsEjjRKNS_11ControlListE W
_ZN9libcamera3ipa6rkisp114IPAProxyRkISP111ThreadProxy12queueRequestEjRKNS_11ControlListE W
_ZN9libcamera3ipa6rkisp114IPAProxyRkISP111ThreadProxy13computeParamsEjj W
_ZN9libcamera3ipa6rkisp114IPAProxyRkISP111ThreadProxy4stopEv W
_ZN9libcamera3ipa6rkisp114IPAProxyRkISP111ThreadProxy5startEv W
_ZN9libcamera3ipa6rkisp114IPAProxyRkISP111ThreadProxyD0Ev W
_ZN9libcamera3ipa6rkisp114IPAProxyRkISP111ThreadProxyD1Ev W
_ZN9libcamera3ipa6rkisp114IPAProxyRkISP111ThreadProxyD2Ev W
_ZN9libcamera3ipa6rkisp114IPAProxyRkISP112configureIPCERKNS1_13IPAConfigInfoERKSt3mapIjNS_9IPAStreamESt4lessIjESaISt4pairIKjS7_EEEPNS_14ControlInfoMapE T
_ZN9libcamera3ipa6rkisp114IPAProxyRkISP112processStatsEjjRKNS_11ControlListE T
_ZN9libcamera3ipa6rkisp114IPAProxyRkISP112queueRequestEjRKNS_11ControlListE T
_ZN9libcamera3ipa6rkisp114IPAProxyRkISP112unmapBuffersERKSt6vectorIjSaIjEE T
_ZN9libcamera3ipa6rkisp114IPAProxyRkISP113computeParamsEjj T
_ZN9libcamera3ipa6rkisp114IPAProxyRkISP113mapBuffersIPCERKSt6vectorINS_9IPABufferESaIS4_EE T
_ZN9libcamera3ipa6rkisp114IPAProxyRkISP115configureThreadERKNS1_13IPAConfigInfoERKSt3mapIjNS_9IPAStreamESt4lessIjESaISt4pairIKjS7_EEEPNS_14ControlInfoMapE T
_ZN9libcamera3ipa6rkisp114IPAProxyRkISP115processStatsIPCEjjRKNS_11ControlListE T
_ZN9libcamera3ipa6rkisp114IPAProxyRkISP115queueRequestIPCEjRKNS_11ControlListE T
_ZN9libcamera3ipa6rkisp114IPAProxyRkISP115unmapBuffersIPCERKSt6vectorIjSaIjEE T
_ZN9libcamera3ipa6rkisp114IPAProxyRkISP116computeParamsIPCEjj T
_ZN9libcamera3ipa6rkisp114IPAProxyRkISP116mapBuffersThreadERKSt6vectorINS_9IPABufferESaIS4_EE T
_ZN9libcamera3ipa6rkisp114IPAProxyRkISP116metadataReadyIPCEN9__gnu_cxx17__normal_iteratorIPKhSt6vectorIhSaIhEEEEmRKS7_INS_8SharedFDESaISB_EE T
_ZN9libcamera3ipa6rkisp114IPAProxyRkISP117paramsComputedIPCEN9__gnu_cxx17__normal_iteratorIPKhSt6vectorIhSaIhEEEEmRKS7_INS_8SharedFDESaISB_EE T
_ZN9libcamera3ipa6rkisp114IPAProxyRkISP118processStatsThreadEjjRKNS_11ControlListE T
_ZN9libcamera3ipa6rkisp114IPAProxyRkISP118queueRequestThreadEjRKNS_11ControlListE T
_ZN9libcamera3ipa6rkisp114IPAProxyRkISP118unmapBuffersThreadERKSt6vectorIjSaIjEE T
_ZN9libcamera3ipa6rkisp114IPAProxyRkISP119computeParamsThreadEjj T
_ZN9libcamera3ipa6rkisp114IPAProxyRkISP119metadataReadyThreadEjRKNS_11ControlListE T
_ZN9libcamera3ipa6rkisp114IPAProxyRkISP120paramsComputedThreadEjj T
_ZN9libcamera3ipa6rkisp114IPAProxyRkISP120setSensorControlsIPCEN9__gnu_cxx17__normal_iteratorIPKhSt6vectorIhSaIhEEEEmRKS7_INS_8SharedFDESaISB_EE T
_ZN9libcamera3ipa6rkisp114IPAProxyRkISP123setSensorControlsThreadEjRKNS_11ControlListE T
_ZN9libcamera3ipa6rkisp114IPAProxyRkISP14initERKNS_11IPASettingsEjRKNS_19IPACameraSensorInfoERKNS_14ControlInfoMapEPS9_ T
_ZN9libcamera3ipa6rkisp114IPAProxyRkISP14stopEv T
_ZN9libcamera3ipa6rkisp114IPAProxyRkISP15startEv T
_ZN9libcamera3ipa6rkisp114IPAProxyRkISP17initIPCERKNS_11IPASettingsEjRKNS_19IPACameraSensorInfoERKNS_14ControlInfoMapEPS9_ T
_ZN9libcamera3ipa6rkisp114IPAProxyRkISP17stopIPCEv T
_ZN9libcamera3ipa6rkisp114IPAProxyRkISP18startIPCEv T
_ZN9libcamera3ipa6rkisp114IPAProxyRkISP19configureERKNS1_13IPAConfigInfoERKSt3mapIjNS_9IPAStreamESt4lessIjESaISt4pairIKjS7_EEEPNS_14ControlInfoMapE T
_ZN9libcamera3ipa6rkisp114IPAProxyRkISP1C1EPNS_9IPAModuleEb T
_ZN9libcamera3ipa6rkisp114IPAProxyRkISP1C2EPNS_9IPAModuleEb T
_ZN9libcamera3ipa6rkisp114IPAProxyRkISP1D0Ev T
_ZN9libcamera3ipa6rkisp114IPAProxyRkISP1D1Ev T
_ZN9libcamera3ipa6rkisp114IPAProxyRkISP1D2Ev T
_ZN9libcamera3ipa6rkisp118IPARkISP1InterfaceD0Ev W
_ZN9libcamera3ipa6rkisp118IPARkISP1InterfaceD1Ev W
_ZN9libcamera3ipa6rkisp118IPARkISP1InterfaceD2Ev W
_ZN9libcamera3ipa8mali_c5513IPAConfigInfoD1Ev W
_ZN9libcamera3ipa8mali_c5513IPAConfigInfoD2Ev W
_ZN9libcamera3ipa8mali_c5515IPAProxyMaliC5510fillParamsEjj T
_ZN9libcamera3ipa8mali_c5515IPAProxyMaliC5510initThreadERKNS_11IPASettingsERKNS1_13IPAConfigInfoEPNS_14ControlInfoMapE T
_ZN9libcamera3ipa8mali_c5515IPAProxyMaliC5510mapBuffersERKSt6vectorINS_9IPABufferESaIS4_EEb T
_ZN9libcamera3ipa8mali_c5515IPAProxyMaliC5510stopThreadEv T
_ZN9libcamera3ipa8mali_c5515IPAProxyMaliC5511recvMessageERKNS_10IPCMessageE T
_ZN9libcamera3ipa8mali_c5515IPAProxyMaliC5511startThreadEv T
_ZN9libcamera3ipa8mali_c5515IPAProxyMaliC5511ThreadProxy10fillParamsEjj W
_ZN9libcamera3ipa8mali_c5515IPAProxyMaliC5511ThreadProxy12processStatsEjjRKNS_11ControlListE W
_ZN9libcamera3ipa8mali_c5515IPAProxyMaliC5511ThreadProxy12queueRequestEjRKNS_11ControlListE W
_ZN9libcamera3ipa8mali_c5515IPAProxyMaliC5511ThreadProxy4stopEv W
_ZN9libcamera3ipa8mali_c5515IPAProxyMaliC5511ThreadProxy5startEv W
_ZN9libcamera3ipa8mali_c5515IPAProxyMaliC5511ThreadProxyD0Ev W
_ZN9libcamera3ipa8mali_c5515IPAProxyMaliC5511ThreadProxyD1Ev W
_ZN9libcamera3ipa8mali_c5515IPAProxyMaliC5511ThreadProxyD2Ev W
_ZN9libcamera3ipa8mali_c5515IPAProxyMaliC5512configureIPCERKNS1_13IPAConfigInfoEhPNS_14ControlInfoMapE T
_ZN9libcamera3ipa8mali_c5515IPAProxyMaliC5512processStatsEjjRKNS_11ControlListE T
_ZN9libcamera3ipa8mali_c5515IPAProxyMaliC5512queueRequestEjRKNS_11ControlListE T
_ZN9libcamera3ipa8mali_c5515IPAProxyMaliC5512unmapBuffersERKSt6vectorINS_9IPABufferESaIS4_EE T
_ZN9libcamera3ipa8mali_c5515IPAProxyMaliC5513fillParamsIPCEjj T
_ZN9libcamera3ipa8mali_c5515IPAProxyMaliC5513mapBuffersIPCERKSt6vectorINS_9IPABufferESaIS4_EEb T
_ZN9libcamera3ipa8mali_c5515IPAProxyMaliC5515configureThreadERKNS1_13IPAConfigInfoEhPNS_14ControlInfoMapE T
_ZN9libcamera3ipa8mali_c5515IPAProxyMaliC5515processStatsIPCEjjRKNS_11ControlListE T
_ZN9libcamera3ipa8mali_c5515IPAProxyMaliC5515queueRequestIPCEjRKNS_11ControlListE T
_ZN9libcamera3ipa8mali_c5515IPAProxyMaliC5515unmapBuffersIPCERKSt6vectorINS_9IPABufferESaIS4_EE T
_ZN9libcamera3ipa8mali_c5515IPAProxyMaliC5516fillParamsThreadEjj T
_ZN9libcamera3ipa8mali_c5515IPAProxyMaliC5516mapBuffersThreadERKSt6vectorINS_9IPABufferESaIS4_EEb T
_ZN9libcamera3ipa8mali_c5515IPAProxyMaliC5517paramsComputedIPCEN9__gnu_cxx17__normal_iteratorIPKhSt6vectorIhSaIhEEEEmRKS7_INS_8SharedFDESaISB_EE T
_ZN9libcamera3ipa8mali_c5515IPAProxyMaliC5517statsProcessedIPCEN9__gnu_cxx17__normal_iteratorIPKhSt6vectorIhSaIhEEEEmRKS7_INS_8SharedFDESaISB_EE T
_ZN9libcamera3ipa8mali_c5515IPAProxyMaliC5518processStatsThreadEjjRKNS_11ControlListE T
_ZN9libcamera3ipa8mali_c5515IPAProxyMaliC5518queueRequestThreadEjRKNS_11ControlListE T
_ZN9libcamera3ipa8mali_c5515IPAProxyMaliC5518unmapBuffersThreadERKSt6vectorINS_9IPABufferESaIS4_EE T
_ZN9libcamera3ipa8mali_c5515IPAProxyMaliC5520paramsComputedThreadEj T
_ZN9libcamera3ipa8mali_c5515IPAProxyMaliC5520setSensorControlsIPCEN9__gnu_cxx17__normal_iteratorIPKhSt6vectorIhSaIhEEEEmRKS7_INS_8SharedFDESaISB_EE T
_ZN9libcamera3ipa8mali_c5515IPAProxyMaliC5520statsProcessedThreadEjRKNS_11ControlListE T
_ZN9libcamera3ipa8mali_c5515IPAProxyMaliC5523setSensorControlsThreadERKNS_11ControlListE T
_ZN9libcamera3ipa8mali_c5515IPAProxyMaliC554initERKNS_11IPASettingsERKNS1_13IPAConfigInfoEPNS_14ControlInfoMapE T
_ZN9libcamera3ipa8mali_c5515IPAProxyMaliC554stopEv T
_ZN9libcamera3ipa8mali_c5515IPAProxyMaliC555startEv T
_ZN9libcamera3ipa8mali_c5515IPAProxyMaliC557initIPCERKNS_11IPASettingsERKNS1_13IPAConfigInfoEPNS_14ControlInfoMapE T
_ZN9libcamera3ipa8mali_c5515IPAProxyMaliC557stopIPCEv T
_ZN9libcamera3ipa8mali_c5515IPAProxyMaliC558startIPCEv T
_ZN9libcamera3ipa8mali_c5515IPAProxyMaliC559configureERKNS1_13IPAConfigInfoEhPNS_14ControlInfoMapE T
_ZN9libcamera3ipa8mali_c5515IPAProxyMaliC55C1EPNS_9IPAModuleEb T
_ZN9libcamera3ipa8mali_c5515IPAProxyMaliC55C2EPNS_9IPAModuleEb T
_ZN9libcamera3ipa8mali_c5515IPAProxyMaliC55D0Ev T
_ZN9libcamera3ipa8mali_c5515IPAProxyMaliC55D1Ev T
_ZN9libcamera3ipa8mali_c5515IPAProxyMaliC55D2Ev T
_ZN9libcamera3ipa8mali_c5519IPAMaliC55InterfaceD0Ev W
_ZN9libcamera3ipa8mali_c5519IPAMaliC55InterfaceD1Ev W
_ZN9libcamera3ipa8mali_c5519IPAMaliC55InterfaceD2Ev W
_ZN9libcamera3RPi10CameraData11freeBuffersEv T
_ZN9libcamera3RPi10CameraData11handleStateEv T
_ZN9libcamera3RPi10CameraData12configureIPAEPKNS_19CameraConfigurationEPNS_3ipa3RPi12ConfigResultE T
_ZN9libcamera3RPi10CameraData12frameStartedEj T
_ZN9libcamera3RPi10CameraData13cameraTimeoutEv T
_ZN9libcamera3RPi10CameraData13metadataReadyERKNS_11ControlListE T
_ZN9libcamera3RPi10CameraData15applyScalerCropERKNS_11ControlListE T
_ZN9libcamera3RPi10CameraData15setLensControlsERKNS_11ControlListE T
_ZN9libcamera3RPi10CameraData17setSensorControlsERNS_11ControlListE T
_ZN9libcamera3RPi10CameraData18handleStreamBufferEPNS_11FrameBufferEPNS0_6StreamE T
_ZN9libcamera3RPi10CameraData18setDelayedControlsERKNS_11ControlListEj T
_ZN9libcamera3RPi10CameraData19fillRequestMetadataERKNS_11ControlListEPNS_7RequestE T
_ZN9libcamera3RPi10CameraData21checkRequestCompletedEv T
_ZN9libcamera3RPi10CameraData21enumerateVideoDevicesEPNS_9MediaLinkERKNSt7__cxx1112basic_stringIcSt11char_traitsIcESaIcEEE T
_ZN9libcamera3RPi10CameraData23clearIncompleteRequestsEv T
_ZN9libcamera3RPi10CameraData25loadPipelineConfigurationEv T
_ZN9libcamera3RPi10CameraData7loadIPAEPNS_3ipa3RPi10InitResultE T
_ZN9libcamera3RPi10CameraDataD0Ev W
_ZN9libcamera3RPi10CameraDataD1Ev W
_ZN9libcamera3RPi10CameraDataD2Ev W
_ZN9libcamera3RPi12BufferObjectD1Ev W
_ZN9libcamera3RPi12BufferObjectD2Ev W
_ZN9libcamera3RPi15DelayedControls13applyControlsEj T
_ZN9libcamera3RPi15DelayedControls3getEj T
_ZN9libcamera3RPi15DelayedControls4pushERKNS_11ControlListEj T
_ZN9libcamera3RPi15DelayedControls5resetEj T
_ZN9libcamera3RPi15DelayedControlsC1EPNS_10V4L2DeviceERKSt13unordered_mapIjNS1_13ControlParamsESt4hashIjESt8equal_toIjESaISt4pairIKjS5_EEE T
_ZN9libcamera3RPi15DelayedControlsC2EPNS_10V4L2DeviceERKSt13unordered_mapIjNS1_13ControlParamsESt4hashIjESt8equal_toIjESaISt4pairIKjS5_EEE T
_ZN9libcamera3RPi19PipelineHandlerBase10mapBuffersEPNS_6CameraERKSt13unordered_mapIjNS0_12BufferObjectESt4hashIjESt8equal_toIjESaISt4pairIKjS5_EEEj T
_ZN9libcamera3RPi19PipelineHandlerBase10stopDeviceEPNS_6CameraE T
_ZN9libcamera3RPi19PipelineHandlerBase13releaseDeviceEPNS_6CameraE T
_ZN9libcamera3RPi19PipelineHandlerBase14registerCameraERSt10unique_ptrINS0_10CameraDataESt14default_deleteIS3_EEPNS_11MediaDeviceERKNSt7__cxx1112basic_stringIcSt11char_traitsIcESaIcEEES9_PNS_11MediaEntityE T
_ZN9libcamera3RPi19PipelineHandlerBase15queueAllBuffersEPNS_6CameraE T
_ZN9libcamera3RPi19PipelineHandlerBase18exportFrameBuffersEPNS_6CameraEPNS_6StreamEPSt6vectorISt10unique_ptrINS_11FrameBufferESt14default_deleteIS8_EESaISB_EE T
_ZN9libcamera3RPi19PipelineHandlerBase18queueRequestDeviceEPNS_6CameraEPNS_7RequestE T
_ZN9libcamera3RPi19PipelineHandlerBase18toV4L2DeviceFormatEPKNS_15V4L2VideoDeviceEPKNS_19StreamConfigurationE T
_ZN9libcamera3RPi19PipelineHandlerBase18toV4L2DeviceFormatEPKNS_15V4L2VideoDeviceERKNS_19V4L2SubdeviceFormatENS_11BayerFormat7PackingE T
_ZN9libcamera3RPi19PipelineHandlerBase18updateStreamConfigEPNS_19StreamConfigurationERKNS_16V4L2DeviceFormatE T
_ZN9libcamera3RPi19PipelineHandlerBase21generateConfigurationEPNS_6CameraENS_4SpanIKNS_10StreamRoleELm18446744073709551615EEE T
_ZN9libcamera3RPi19PipelineHandlerBase5isRawERKNS_11PixelFormatE T
_ZN9libcamera3RPi19PipelineHandlerBase5isRgbERKNS_11PixelFormatE T
_ZN9libcamera3RPi19PipelineHandlerBase5isYuvERKNS_11PixelFormatE T
_ZN9libcamera3RPi19PipelineHandlerBase5startEPNS_6CameraEPKNS_11ControlListE T
_ZN9libcamera3RPi19PipelineHandlerBase9configureEPNS_6CameraEPNS_19CameraConfigurationE T
_ZN9libcamera3RPi22RPiCameraConfiguration19validateColorSpacesENS_5FlagsINS_19CameraConfiguration14ColorSpaceFlagEEE T
_ZN9libcamera3RPi22RPiCameraConfiguration8validateEv T
_ZN9libcamera3RPi22RPiCameraConfigurationD0Ev W
_ZN9libcamera3RPi22RPiCameraConfigurationD1Ev W
_ZN9libcamera3RPi22RPiCameraConfigurationD2Ev W
_ZN9libcamera3RPi6Stream10clearFlagsENS_5FlagsINS1_10StreamFlagEEE T
_ZN9libcamera3RPi6Stream11queueBufferEPNS_11FrameBufferE T
_ZN9libcamera3RPi6Stream12clearBuffersEv T
_ZN9libcamera3RPi6Stream12resetBuffersEv T
_ZN9libcamera3RPi6Stream12returnBufferEPNS_11FrameBufferE T
_ZN9libcamera3RPi6Stream13acquireBufferEv T
_ZN9libcamera3RPi6Stream13bufferEmplaceEjPNS_11FrameBufferE T
_ZN9libcamera3RPi6Stream13queueToDeviceEPNS_11FrameBufferE T
_ZN9libcamera3RPi6Stream14prepareBuffersEj T
_ZN9libcamera3RPi6Stream14releaseBuffersEv T
_ZN9libcamera3RPi6Stream14setSwDownscaleEj T
_ZN9libcamera3RPi6Stream15queueAllBuffersEv T
_ZN9libcamera3RPi6Stream17errorBufferObjectE B 48
_ZN9libcamera3RPi6Stream17setExportedBufferEPNS_11FrameBufferE T
_ZN9libcamera3RPi6Stream18setExportedBuffersEPSt6vectorISt10unique_ptrINS_11FrameBufferESt14default_deleteIS4_EESaIS7_EE T
_ZN9libcamera3RPi6Stream8setFlagsENS_5FlagsINS1_10StreamFlagEEE T
_ZN9libcamera3RPi6Stream9getBufferEj T
_ZN9libcamera3RPi6StreamC1EPKcPNS_11MediaEntityENS_5FlagsINS1_10StreamFlagEEE W
_ZN9libcamera3RPi6StreamC2EPKcPNS_11MediaEntityENS_5FlagsINS1_10StreamFlagEEE W
_ZN9libcamera3RPi6StreamD1Ev W
_ZN9libcamera3RPi6StreamD2Ev W
_ZN9libcamera4SizedVEf T
_ZN9libcamera4SizemLEf T
_ZN9libcamera5FenceC1ENS_8UniqueFDE T
_ZN9libcamera5FenceC2ENS_8UniqueFDE T
_ZN9libcamera5sysfs11charDevPathERKNSt7__cxx1112basic_stringIcSt11char_traitsIcESaIcEEE T
_ZN9libcamera5sysfs16firmwareNodePathERKNSt7__cxx1112basic_stringIcSt11char_traitsIcESaIcEEE T
_ZN9libcamera5utils18libcameraBuildPathB5cxx11Ev T
_ZN9libcamera5utils19libcameraSourcePathB5cxx11Ev T
_ZN9libcamera6Camera10disconnectEv T
_ZN9libcamera6Camera12queueRequestEPNS_7RequestE T
_ZN9libcamera6Camera13createRequestEm T
_ZN9libcamera6Camera15requestCompleteEPNS_7RequestE T
_ZN9libcamera6Camera16patchControlListERNS_11ControlListE T
_ZN9libcamera6Camera18exportFrameBuffersEPNS_6StreamEPSt6vectorISt10unique_ptrINS_11FrameBufferESt14default_deleteIS5_EESaIS8_EE T
_ZN9libcamera6Camera21generateConfigurationENS_4SpanIKNS_10StreamRoleELm18446744073709551615EEE T
_ZN9libcamera6Camera4stopEv T
_ZN9libcamera6Camera5startEPKNS_11ControlListE T
_ZN9libcamera6Camera6createESt10unique_ptrINS0_7PrivateESt14default_deleteIS2_EERKNSt7__cxx1112basic_stringIcSt11char_traitsIcESaIcEEERKSt3setIPNS_6StreamESt4lessISG_ESaISG_EE T
_ZN9libcamera6Camera7acquireEv T
_ZN9libcamera6Camera7Private10disconnectEv T
_ZN9libcamera6Camera7Private8setStateENS1_5StateE T
_ZN9libcamera6Camera7PrivateC1EPNS_15PipelineHandlerE T
_ZN9libcamera6Camera7PrivateC2EPNS_15PipelineHandlerE T
_ZN9libcamera6Camera7PrivateD0Ev T
_ZN9libcamera6Camera7PrivateD1Ev T
_ZN9libcamera6Camera7PrivateD2Ev T
_ZN9libcamera6Camera7releaseEv T
_ZN9libcamera6Camera9configureEPNS_19CameraConfigurationE T
_ZN9libcamera6CameraC1ESt10unique_ptrINS0_7PrivateESt14default_deleteIS2_EERKNSt7__cxx1112basic_stringIcSt11char_traitsIcESaIcEEERKSt3setIPNS_6StreamESt4lessISG_ESaISG_EE T
_ZN9libcamera6CameraC2ESt10unique_ptrINS0_7PrivateESt14default_deleteIS2_EERKNSt7__cxx1112basic_stringIcSt11char_traitsIcESaIcEEERKSt3setIPNS_6StreamESt4lessISG_ESaISG_EE T
_ZN9libcamera6CameraD0Ev T
_ZN9libcamera6CameraD1Ev T
_ZN9libcamera6CameraD2Ev T
_ZN9libcamera6PubKeyC1ENS_4SpanIKhLm18446744073709551615EEE T
_ZN9libcamera6PubKeyC2ENS_4SpanIKhLm18446744073709551615EEE T
_ZN9libcamera6PubKeyD1Ev T
_ZN9libcamera6PubKeyD2Ev T
_ZN9libcamera6SignalIJEED1Ev W
_ZN9libcamera6SignalIJEED2Ev W
_ZN9libcamera6SignalIJjEED1Ev W
_ZN9libcamera6SignalIJjEED2Ev W
_ZN9libcamera6SignalIJjjEED1Ev W
_ZN9libcamera6SignalIJjjEED2Ev W
_ZN9libcamera6SignalIJjRKNS_11ControlListEEE4emitEjS3_ W
_ZN9libcamera6SignalIJjRKNS_11ControlListEEED1Ev W
_ZN9libcamera6SignalIJjRKNS_11ControlListEEED2Ev W
_ZN9libcamera6SignalIJPNS_11FrameBufferEEED1Ev W
_ZN9libcamera6SignalIJPNS_11FrameBufferEEED2Ev W
_ZN9libcamera6SignalIJPNS_7RequestEEED1Ev W
_ZN9libcamera6SignalIJPNS_7RequestEEED2Ev W
_ZN9libcamera6SignalIJPNS_7RequestEPNS_11FrameBufferEEED1Ev W
_ZN9libcamera6SignalIJPNS_7RequestEPNS_11FrameBufferEEED2Ev W
_ZN9libcamera6SignalIJRKNS_11ControlListEEE4emitES3_ W
_ZN9libcamera6SignalIJRKNS_11ControlListEEED1Ev W
_ZN9libcamera6SignalIJRKNS_11ControlListEEED2Ev W
_ZN9libcamera6SignalIJRKNS_11ControlListEjEE4emitES3_j W
_ZN9libcamera6SignalIJSt10shared_ptrINS_6CameraEEEED1Ev W
_ZN9libcamera6SignalIJSt10shared_ptrINS_6CameraEEEED2Ev W
_ZN9libcamera6StreamC1Ev T
_ZN9libcamera6StreamC2Ev T
_ZN9libcamera7ControlIbEC1EjPKcS3_NS_5FlagsINS_9ControlId9DirectionEEERKSt3mapINSt7__cxx1112basic_stringIcSt11char_traitsIcESaIcEEEiSt4lessISE_ESaISt4pairIKSE_iEEE W
_ZN9libcamera7ControlIbEC2EjPKcS3_NS_5FlagsINS_9ControlId9DirectionEEERKSt3mapINSt7__cxx1112basic_stringIcSt11char_traitsIcESaIcEEEiSt4lessISE_ESaISt4pairIKSE_iEEE W
_ZN9libcamera7ControlIbED1Ev W
_ZN9libcamera7ControlIbED2Ev W
_ZN9libcamera7ControlIfEC1EjPKcS3_NS_5FlagsINS_9ControlId9DirectionEEERKSt3mapINSt7__cxx1112basic_stringIcSt11char_traitsIcESaIcEEEiSt4lessISE_ESaISt4pairIKSE_iEEE W
_ZN9libcamera7ControlIfEC2EjPKcS3_NS_5FlagsINS_9ControlId9DirectionEEERKSt3mapINSt7__cxx1112basic_stringIcSt11char_traitsIcESaIcEEEiSt4lessISE_ESaISt4pairIKSE_iEEE W
_ZN9libcamera7ControlIfED1Ev W
_ZN9libcamera7ControlIfED2Ev W
_ZN9libcamera7ControlIiEC1EjPKcS3_NS_5FlagsINS_9ControlId9DirectionEEERKSt3mapINSt7__cxx1112basic_stringIcSt11char_traitsIcESaIcEEEiSt4lessISE_ESaISt4pairIKSE_iEEE W
_ZN9libcamera7ControlIiEC2EjPKcS3_NS_5FlagsINS_9ControlId9DirectionEEERKSt3mapINSt7__cxx1112basic_stringIcSt11char_traitsIcESaIcEEEiSt4lessISE_ESaISt4pairIKSE_iEEE W
_ZN9libcamera7ControlIiED1Ev W
_ZN9libcamera7ControlIiED2Ev W
_ZN9libcamera7ControlIlEC1EjPKcS3_NS_5FlagsINS_9ControlId9DirectionEEERKSt3mapINSt7__cxx1112basic_stringIcSt11char_traitsIcESaIcEEEiSt4lessISE_ESaISt4pairIKSE_iEEE W
_ZN9libcamera7ControlIlEC2EjPKcS3_NS_5FlagsINS_9ControlId9DirectionEEERKSt3mapINSt7__cxx1112basic_stringIcSt11char_traitsIcESaIcEEEiSt4lessISE_ESaISt4pairIKSE_iEEE W
_ZN9libcamera7ControlIlED1Ev W
_ZN9libcamera7ControlIlED2Ev W
_ZN9libcamera7ControlINS_4SizeEEC1EjPKcS4_NS_5FlagsINS_9ControlId9DirectionEEERKSt3mapINSt7__cxx1112basic_stringIcSt11char_traitsIcESaIcEEEiSt4lessISF_ESaISt4pairIKSF_iEEE W
_ZN9libcamera7ControlINS_4SizeEEC2EjPKcS4_NS_5FlagsINS_9ControlId9DirectionEEERKSt3mapINSt7__cxx1112basic_stringIcSt11char_traitsIcESaIcEEEiSt4lessISF_ESaISt4pairIKSF_iEEE W
_ZN9libcamera7ControlINS_4SizeEED1Ev W
_ZN9libcamera7ControlINS_4SizeEED2Ev W
_ZN9libcamera7ControlINS_4SpanIKfLm18446744073709551615EEEED1Ev W
_ZN9libcamera7ControlINS_4SpanIKfLm18446744073709551615EEEED2Ev W
_ZN9libcamera7ControlINS_4SpanIKfLm2EEEED1Ev W
_ZN9libcamera7ControlINS_4SpanIKfLm2EEEED2Ev W
_ZN9libcamera7ControlINS_4SpanIKfLm9EEEED1Ev W
_ZN9libcamera7ControlINS_4SpanIKfLm9EEEED2Ev W
_ZN9libcamera7ControlINS_4SpanIKhLm18446744073709551615EEEEC1EjPKcS6_NS_5FlagsINS_9ControlId9DirectionEEERKSt3mapINSt7__cxx1112basic_stringIcSt11char_traitsIcESaIcEEEiSt4lessISH_ESaISt4pairIKSH_iEEE W
_ZN9libcamera7ControlINS_4SpanIKhLm18446744073709551615EEEEC2EjPKcS6_NS_5FlagsINS_9ControlId9DirectionEEERKSt3mapINSt7__cxx1112basic_stringIcSt11char_traitsIcESaIcEEEiSt4lessISH_ESaISt4pairIKSH_iEEE W
_ZN9libcamera7ControlINS_4SpanIKhLm18446744073709551615EEEED1Ev W
_ZN9libcamera7ControlINS_4SpanIKhLm18446744073709551615EEEED2Ev W
_ZN9libcamera7ControlINS_4SpanIKiLm18446744073709551615EEEED1Ev W
_ZN9libcamera7ControlINS_4SpanIKiLm18446744073709551615EEEED2Ev W
_ZN9libcamera7ControlINS_4SpanIKiLm2EEEED1Ev W
_ZN9libcamera7ControlINS_4SpanIKiLm2EEEED2Ev W
_ZN9libcamera7ControlINS_4SpanIKiLm4EEEED1Ev W
_ZN9libcamera7ControlINS_4SpanIKiLm4EEEED2Ev W
_ZN9libcamera7ControlINS_4SpanIKlLm18446744073709551615EEEED1Ev W
_ZN9libcamera7ControlINS_4SpanIKlLm18446744073709551615EEEED2Ev W
_ZN9libcamera7ControlINS_4SpanIKlLm2EEEED1Ev W
_ZN9libcamera7ControlINS_4SpanIKlLm2EEEED2Ev W
_ZN9libcamera7ControlINS_4SpanIKNS_5PointELm18446744073709551615EEEED1Ev W
_ZN9libcamera7ControlINS_4SpanIKNS_5PointELm18446744073709551615EEEED2Ev W
_ZN9libcamera7ControlINS_4SpanIKNS_9RectangleELm18446744073709551615EEEEC1EjPKcS7_NS_5FlagsINS_9ControlId9DirectionEEERKSt3mapINSt7__cxx1112basic_stringIcSt11char_traitsIcESaIcEEEiSt4lessISI_ESaISt4pairIKSI_iEEE W
_ZN9libcamera7ControlINS_4SpanIKNS_9RectangleELm18446744073709551615EEEEC2EjPKcS7_NS_5FlagsINS_9ControlId9DirectionEEERKSt3mapINSt7__cxx1112basic_stringIcSt11char_traitsIcESaIcEEEiSt4lessISI_ESaISt4pairIKSI_iEEE W
_ZN9libcamera7ControlINS_4SpanIKNS_9RectangleELm18446744073709551615EEEED1Ev W
_ZN9libcamera7ControlINS_4SpanIKNS_9RectangleELm18446744073709551615EEEED2Ev W
_ZN9libcamera7ControlINS_9RectangleEED1Ev W
_ZN9libcamera7ControlINS_9RectangleEED2Ev W
_ZN9libcamera7ControlINSt7__cxx1112basic_stringIcSt11char_traitsIcESaIcEEEED1Ev W
_ZN9libcamera7ControlINSt7__cxx1112basic_stringIcSt11char_traitsIcESaIcEEEED2Ev W
_ZN9libcamera7DebayerD0Ev T
_ZN9libcamera7DebayerD1Ev T
_ZN9libcamera7DebayerD2Ev T
_ZN9libcamera7IPCPipeC1Ev T
_ZN9libcamera7IPCPipeC2Ev T
_ZN9libcamera7IPCPipeD0Ev T
_ZN9libcamera7IPCPipeD1Ev T
_ZN9libcamera7IPCPipeD2Ev T
_ZN9libcamera7Process17closeAllFdsExceptERKSt6vectorIiSaIiEE T
_ZN9libcamera7Process4diedEi T
_ZN9libcamera7Process4killEv T
_ZN9libcamera7Process5startERKNSt7__cxx1112basic_stringIcSt11char_traitsIcESaIcEEERKSt6vectorIS6_SaIS6_EERKS9_IiSaIiEE T
_ZN9libcamera7Process7isolateEv T
_ZN9libcamera7ProcessC1Ev T
_ZN9libcamera7ProcessC2Ev T
_ZN9libcamera7ProcessD1Ev T
_ZN9libcamera7ProcessD2Ev T
_ZN9libcamera7Request5reuseENS0_9ReuseFlagE T
_ZN9libcamera7Request7Private14completeBufferEPNS_11FrameBufferE T
_ZN9libcamera7Request7Private15doCancelRequestEv T
_ZN9libcamera7Request7Private17notifierActivatedEPNS_11FrameBufferE T
_ZN9libcamera7Request7Private20emitPrepareCompletedEv T
_ZN9libcamera7Request7Private5resetEv T
_ZN9libcamera7Request7Private6cancelEv T
_ZN9libcamera7Request7Private7prepareENSt6chrono8durationIlSt5ratioILl1ELl1000EEEE T
_ZN9libcamera7Request7Private7timeoutEv T
_ZN9libcamera7Request7Private8completeEv T
_ZN9libcamera7Request7PrivateC1EPNS_6CameraE T
_ZN9libcamera7Request7PrivateC2EPNS_6CameraE T
_ZN9libcamera7Request7PrivateD0Ev T
_ZN9libcamera7Request7PrivateD1Ev T
_ZN9libcamera7Request7PrivateD2Ev T
_ZN9libcamera7Request9addBufferEPKNS_6StreamEPNS_11FrameBufferESt10unique_ptrINS_5FenceESt14default_deleteIS7_EE T
_ZN9libcamera7RequestC1EPNS_6CameraEm T
_ZN9libcamera7RequestC2EPNS_6CameraEm T
_ZN9libcamera7RequestD1Ev T
_ZN9libcamera7RequestD2Ev T
_ZN9libcamera8controls10AfMeteringE B b8
_ZN9libcamera8controls10BrightnessE B b8
_ZN9libcamera8controls10HdrChannelE B b8
_ZN9libcamera8controls10SaturationE B b8
_ZN9libcamera8controls10ScalerCropE B b8
_ZN9libcamera8controls11ColourGainsE B b8
_ZN9libcamera8controls11DigitalGainE B b8
_ZN9libcamera8controls12AfModeValuesE B 30
_ZN9libcamera8controls12AfPauseStateE B b8
_ZN9libcamera8controls12AnalogueGainE B b8
_ZN9libcamera8controls12ExposureTimeE B b8
_ZN9libcamera8controls12LensPositionE B b8
_ZN9libcamera8controls13AeFlickerModeE B b8
_ZN9libcamera8controls13AeStateValuesE B 30
_ZN9libcamera8controls13AfPauseValuesE B 30
_ZN9libcamera8controls13AfRangeValuesE B 30
_ZN9libcamera8controls13AfSpeedValuesE B 20
_ZN9libcamera8controls13AfStateValuesE B 40
_ZN9libcamera8controls13AwbModeValuesE B 80
_ZN9libcamera8controls13ExposureValueE B b8
_ZN9libcamera8controls13FrameDurationE B b8
_ZN9libcamera8controls13HdrModeValuesE B 50
_ZN9libcamera8controls14AeExposureModeE B b8
_ZN9libcamera8controls14AeMeteringModeE B b8
_ZN9libcamera8controls14FrameWallClockE B b8
_ZN9libcamera8controls15AeFlickerPeriodE B b8
_ZN9libcamera8controls15AfTriggerValuesE B 20
_ZN9libcamera8controls15SensorTimestampE B b8
_ZN9libcamera8controls16AeConstraintModeE B b8
_ZN9libcamera8controls16AfMeteringValuesE B 20
_ZN9libcamera8controls16AnalogueGainModeE B b8
_ZN9libcamera8controls16ExposureTimeModeE B b8
_ZN9libcamera8controls16HdrChannelValuesE B 40
_ZN9libcamera8controls17AeFlickerDetectedE B b8
_ZN9libcamera8controls17ColourTemperatureE B b8
_ZN9libcamera8controls17SensorBlackLevelsE B b8
_ZN9libcamera8controls17SensorTemperatureE B b8
_ZN9libcamera8controls18AfModeNameValueMapB5cxx11E B 30
_ZN9libcamera8controls18AfPauseStateValuesE B 30
_ZN9libcamera8controls19AeFlickerModeValuesE B 30
_ZN9libcamera8controls19AeStateNameValueMapB5cxx11E B 30
_ZN9libcamera8controls19AfPauseNameValueMapB5cxx11E B 30
_ZN9libcamera8controls19AfRangeNameValueMapB5cxx11E B 30
_ZN9libcamera8controls19AfSpeedNameValueMapB5cxx11E B 30
_ZN9libcamera8controls19AfStateNameValueMapB5cxx11E B 30
_ZN9libcamera8controls19AwbModeNameValueMapB5cxx11E B 30
_ZN9libcamera8controls19DebugMetadataEnableE B b8
_ZN9libcamera8controls19FrameDurationLimitsE B b8
_ZN9libcamera8controls19HdrModeNameValueMapB5cxx11E B 30
_ZN9libcamera8controls20AeExposureModeValuesE B 40
_ZN9libcamera8controls20AeMeteringModeValuesE B 40
_ZN9libcamera8controls21AfTriggerNameValueMapB5cxx11E B 30
_ZN9libcamera8controls22AeConstraintModeValuesE B 40
_ZN9libcamera8controls22AfMeteringNameValueMapB5cxx11E B 30
_ZN9libcamera8controls22AnalogueGainModeValuesE B 20
_ZN9libcamera8controls22ColourCorrectionMatrixE B b8
_ZN9libcamera8controls22ExposureTimeModeValuesE B 20
_ZN9libcamera8controls22HdrChannelNameValueMapB5cxx11E B 30
_ZN9libcamera8controls24AfPauseStateNameValueMapB5cxx11E B 30
_ZN9libcamera8controls25AeFlickerModeNameValueMapB5cxx11E B 30
_ZN9libcamera8controls26AeExposureModeNameValueMapB5cxx11E B 30
_ZN9libcamera8controls26AeMeteringModeNameValueMapB5cxx11E B 30
_ZN9libcamera8controls28AeConstraintModeNameValueMapB5cxx11E B 30
_ZN9libcamera8controls28AnalogueGainModeNameValueMapB5cxx11E B 30
_ZN9libcamera8controls28ExposureTimeModeNameValueMapB5cxx11E B 30
_ZN9libcamera8controls3LuxE B b8
_ZN9libcamera8controls3rpi10CnnKpiInfoE B b8
_ZN9libcamera8controls3rpi10SyncFramesE B b8
_ZN9libcamera8controls3rpi11ScalerCropsE B b8
_ZN9libcamera8controls3rpi14CnnInputTensorE B b8
_ZN9libcamera8controls3rpi14SyncModeValuesE B 30
_ZN9libcamera8controls3rpi15CnnOutputTensorE B b8
_ZN9libcamera8controls3rpi15PispStatsOutputE B b8
_ZN9libcamera8controls3rpi17StatsOutputEnableE B b8
_ZN9libcamera8controls3rpi18Bcm2835StatsOutputE B b8
_ZN9libcamera8controls3rpi18CnnInputTensorInfoE B b8
_ZN9libcamera8controls3rpi19CnnOutputTensorInfoE B b8
_ZN9libcamera8controls3rpi20CnnEnableInputTensorE B b8
_ZN9libcamera8controls3rpi20SyncModeNameValueMapB5cxx11E B 30
_ZN9libcamera8controls3rpi8SyncModeE B b8
_ZN9libcamera8controls3rpi9SyncReadyE B b8
_ZN9libcamera8controls3rpi9SyncTimerE B b8
_ZN9libcamera8controls5draft10MaxLatencyE B b8
_ZN9libcamera8controls5draft13PipelineDepthE B b8
_ZN9libcamera8controls5draft14AwbStateValuesE B 40
_ZN9libcamera8controls5draft14FaceDetectModeE B b8
_ZN9libcamera8controls5draft15TestPatternModeE B b8
_ZN9libcamera8controls5draft17FaceDetectFaceIdsE B b8
_ZN9libcamera8controls5draft18LensShadingMapModeE B b8
_ZN9libcamera8controls5draft18NoiseReductionModeE B b8
_ZN9libcamera8controls5draft19AePrecaptureTriggerE B b8
_ZN9libcamera8controls5draft20AwbStateNameValueMapB5cxx11E B 30
_ZN9libcamera8controls5draft20FaceDetectFaceScoresE B b8
_ZN9libcamera8controls5draft20FaceDetectModeValuesE B 30
_ZN9libcamera8controls5draft21TestPatternModeValuesE B 60
_ZN9libcamera8controls5draft23FaceDetectFaceLandmarksE B b8
_ZN9libcamera8controls5draft24FaceDetectFaceRectanglesE B b8
_ZN9libcamera8controls5draft24LensShadingMapModeValuesE B 20
_ZN9libcamera8controls5draft24NoiseReductionModeValuesE B 50
_ZN9libcamera8controls5draft24SensorRollingShutterSkewE B b8
_ZN9libcamera8controls5draft25AePrecaptureTriggerValuesE B 30
_ZN9libcamera8controls5draft26FaceDetectModeNameValueMapB5cxx11E B 30
_ZN9libcamera8controls5draft27TestPatternModeNameValueMapB5cxx11E B 30
_ZN9libcamera8controls5draft29ColorCorrectionAberrationModeE B b8
_ZN9libcamera8controls5draft30LensShadingMapModeNameValueMapB5cxx11E B 30
_ZN9libcamera8controls5draft30NoiseReductionModeNameValueMapB5cxx11E B 30
_ZN9libcamera8controls5draft31AePrecaptureTriggerNameValueMapB5cxx11E B 30
_ZN9libcamera8controls5draft35ColorCorrectionAberrationModeValuesE B 30
_ZN9libcamera8controls5draft41ColorCorrectionAberrationModeNameValueMapB5cxx11E B 30
_ZN9libcamera8controls5draft8AwbStateE B b8
_ZN9libcamera8controls5GammaE B b8
_ZN9libcamera8controls6AfModeE B b8
_ZN9libcamera8controls7AeStateE B b8
_ZN9libcamera8controls7AfPauseE B b8
_ZN9libcamera8controls7AfRangeE B b8
_ZN9libcamera8controls7AfSpeedE B b8
_ZN9libcamera8controls7AfStateE B b8
_ZN9libcamera8controls7AwbModeE B b8
_ZN9libcamera8controls7HdrModeE B b8
_ZN9libcamera8controls8AeEnableE B b8
_ZN9libcamera8controls8ContrastE B b8
_ZN9libcamera8controls8controlsE B 38
_ZN9libcamera8controls8FocusFoME B b8
_ZN9libcamera8controls9AfTriggerE B b8
_ZN9libcamera8controls9AfWindowsE B b8
_ZN9libcamera8controls9AwbEnableE B b8
_ZN9libcamera8controls9AwbLockedE B b8
_ZN9libcamera8controls9SharpnessE B b8
_ZN9libcamera8IPAProxyC1EPNS_9IPAModuleE T
_ZN9libcamera8IPAProxyC2EPNS_9IPAModuleE T
_ZN9libcamera8IPAProxyD0Ev T
_ZN9libcamera8IPAProxyD1Ev T
_ZN9libcamera8IPAProxyD2Ev T
_ZN9libcamera8MediaPad7addLinkEPNS_9MediaLinkE T
_ZN9libcamera8MediaPadC1EPK12media_v2_padPNS_11MediaEntityE T
_ZN9libcamera8MediaPadC2EPK12media_v2_padPNS_11MediaEntityE T
_ZN9libcamera8MediaPadD0Ev W
_ZN9libcamera8MediaPadD1Ev W
_ZN9libcamera8MediaPadD2Ev W
_ZN9libcamera9ControlIdC1EjRKNSt7__cxx1112basic_stringIcSt11char_traitsIcESaIcEEES8_NS_11ControlTypeENS_5FlagsINS0_9DirectionEEEmRKSt3mapIS6_iSt4lessIS6_ESaISt4pairIS7_iEEE T
_ZN9libcamera9ControlIdC2EjRKNSt7__cxx1112basic_stringIcSt11char_traitsIcESaIcEEES8_NS_11ControlTypeENS_5FlagsINS0_9DirectionEEEmRKSt3mapIS6_iSt4lessIS6_ESaISt4pairIS7_iEEE T
_ZN9libcamera9ConverterC1EPNS_11MediaDeviceENS_5FlagsINS0_7FeatureEEE T
_ZN9libcamera9ConverterC2EPNS_11MediaDeviceENS_5FlagsINS0_7FeatureEEE T
_ZN9libcamera9ConverterD0Ev T
_ZN9libcamera9ConverterD1Ev T
_ZN9libcamera9ConverterD2Ev T
_ZN9libcamera9DmaSyncer4syncEm T
_ZN9libcamera9DmaSyncerC1ENS_8SharedFDENS0_8SyncTypeE T
_ZN9libcamera9DmaSyncerC2ENS_8SharedFDENS0_8SyncTypeE T
_ZN9libcamera9DmaSyncerD1Ev T
_ZN9libcamera9DmaSyncerD2Ev T
_ZN9libcamera9IPAModule15createInterfaceEv T
_ZN9libcamera9IPAModule17loadIPAModuleInfoEv T
_ZN9libcamera9IPAModule4loadEv T
_ZN9libcamera9IPAModuleC1ERKNSt7__cxx1112basic_stringIcSt11char_traitsIcESaIcEEE T
_ZN9libcamera9IPAModuleC2ERKNSt7__cxx1112basic_stringIcSt11char_traitsIcESaIcEEE T
_ZN9libcamera9IPAModuleD0Ev T
_ZN9libcamera9IPAModuleD1Ev T
_ZN9libcamera9IPAModuleD2Ev T
_ZN9libcamera9MediaLink10setEnabledEb T
_ZN9libcamera9MediaLinkC1EPK13media_v2_linkPNS_8MediaPadES5_ T
_ZN9libcamera9MediaLinkC2EPK13media_v2_linkPNS_8MediaPadES5_ T
_ZN9libcamera9MediaLinkD0Ev W
_ZN9libcamera9MediaLinkD1Ev W
_ZN9libcamera9MediaLinkD2Ev W
_ZN9libcamera9Rectangle11translateByERKNS_5PointE T
_ZN9libcamera9Rectangle7scaleByERKNS_4SizeES3_ T
_ZN9libcamera9SharedMemaSEOS0_ T
_ZN9libcamera9SharedMemC1EOS0_ T
_ZN9libcamera9SharedMemC1ERKNSt7__cxx1112basic_stringIcSt11char_traitsIcESaIcEEEm T
_ZN9libcamera9SharedMemC1Ev T
_ZN9libcamera9SharedMemC2EOS0_ T
_ZN9libcamera9SharedMemC2ERKNSt7__cxx1112basic_stringIcSt11char_traitsIcESaIcEEEm T
_ZN9libcamera9SharedMemC2Ev T
_ZN9libcamera9SharedMemD0Ev T
_ZN9libcamera9SharedMemD1Ev T
_ZN9libcamera9SharedMemD2Ev T
_ZN9libcameradvERKNS_11OrientationES2_ T
_ZN9libcameraeqERKNS_10ColorSpaceES2_ T
_ZN9libcameraeqERKNS_11BayerFormatES2_ T
_ZN9libcameraeqERKNS_13V4L2Subdevice6StreamES3_ T
_ZN9libcameraeqERKNS_4SizeES2_ T
_ZN9libcameraeqERKNS_5PointES2_ T
_ZN9libcameraeqERKNS_9RectangleES2_ T
_ZN9libcameraeqERKNS_9SizeRangeES2_ T
_ZN9libcameralsERSoNS_10StreamRoleE T
_ZN9libcameralsERSoRKNS_11BayerFormatE T
_ZN9libcameralsERSoRKNS_11OrientationE T
_ZN9libcameralsERSoRKNS_11PixelFormatE T
_ZN9libcameralsERSoRKNS_13V4L2Subdevice5RouteE T
_ZN9libcameralsERSoRKNS_13V4L2Subdevice6StreamE T
_ZN9libcameralsERSoRKNS_15V4L2PixelFormatE T
_ZN9libcameralsERSoRKNS_16V4L2DeviceFormatE T
_ZN9libcameralsERSoRKNS_19StreamConfigurationE T
_ZN9libcameralsERSoRKNS_19V4L2SubdeviceFormatE T
_ZN9libcameralsERSoRKNS_4SizeE T
_ZN9libcameralsERSoRKNS_5PointE T
_ZN9libcameralsERSoRKNS_7RequestE T
_ZN9libcameralsERSoRKNS_8MediaPadE T
_ZN9libcameralsERSoRKNS_9MediaLinkE T
_ZN9libcameralsERSoRKNS_9RectangleE T
_ZN9libcameralsERSoRKNS_9SizeRangeE T
_ZN9libcameralsERSoRKSt6vectorINS_13V4L2Subdevice5RouteESaIS3_EE T
_ZN9libcameraltERKNS_4SizeES2_ T
_ZN9libcameramlENS_9TransformES0_ T
_ZN9libcameramlERKNS_11OrientationERKNS_9TransformE T
_ZN9libcamerangENS_9TransformE T
_ZNK9libcamera10CameraLens8controlsEv T
_ZNK9libcamera10CameraLens9logPrefixB5cxx11Ev T
_ZNK9libcamera10ColorSpace8toStringB5cxx11Ev T
_ZNK9libcamera10IPAManager16isSignatureValidEPNS_9IPAModuleE T
_ZNK9libcamera10IPCMessage7payloadEv T
_ZNK9libcamera10V4L2Device10devicePathB5cxx11Ev T
_ZNK9libcamera10V4L2Device11controlInfoEj T
_ZNK9libcamera10YamlObject4sizeEv T
_ZNK9libcamera10YamlObject6GetterIavE3getERKS0_ W
_ZNK9libcamera10YamlObject6GetterIbvE3getERKS0_ T
_ZNK9libcamera10YamlObject6GetterIdvE3getERKS0_ T
_ZNK9libcamera10YamlObject6GetterIfvE3getERKS0_ T
_ZNK9libcamera10YamlObject6GetterIhvE3getERKS0_ W
_ZNK9libcamera10YamlObject6GetterIivE3getERKS0_ W
_ZNK9libcamera10YamlObject6GetterIjvE3getERKS0_ W
_ZNK9libcamera10YamlObject6GetterINS_4SizeEvE3getERKS0_ T
_ZNK9libcamera10YamlObject6GetterINSt7__cxx1112basic_stringIcSt11char_traitsIcESaIcEEEvE3getERKS0_ T
_ZNK9libcamera10YamlObject6GetterIsvE3getERKS0_ W
_ZNK9libcamera10YamlObject6GetterItvE3getERKS0_ W
_ZNK9libcamera10YamlObject7getListIaLPv0EEESt8optionalISt6vectorIT_SaIS5_EEEv W
_ZNK9libcamera10YamlObject7getListIbLPv0EEESt8optionalISt6vectorIT_SaIS5_EEEv W
_ZNK9libcamera10YamlObject7getListIdLPv0EEESt8optionalISt6vectorIT_SaIS5_EEEv W
_ZNK9libcamera10YamlObject7getListIfLPv0EEESt8optionalISt6vectorIT_SaIS5_EEEv W
_ZNK9libcamera10YamlObject7getListIhLPv0EEESt8optionalISt6vectorIT_SaIS5_EEEv W
_ZNK9libcamera10YamlObject7getListIiLPv0EEESt8optionalISt6vectorIT_SaIS5_EEEv W
_ZNK9libcamera10YamlObject7getListIjLPv0EEESt8optionalISt6vectorIT_SaIS5_EEEv W
_ZNK9libcamera10YamlObject7getListINS_4SizeELPv0EEESt8optionalISt6vectorIT_SaIS6_EEEv W
_ZNK9libcamera10YamlObject7getListINSt7__cxx1112basic_stringIcSt11char_traitsIcESaIcEEELPv0EEESt8optionalISt6vectorIT_SaISB_EEEv W
_ZNK9libcamera10YamlObject7getListIsLPv0EEESt8optionalISt6vectorIT_SaIS5_EEEv W
_ZNK9libcamera10YamlObject7getListItLPv0EEESt8optionalISt6vectorIT_SaIS5_EEEv W
_ZNK9libcamera10YamlObject8containsESt17basic_string_viewIcSt11char_traitsIcEE T
_ZNK9libcamera10YamlObjectixEm T
_ZNK9libcamera10YamlObjectixESt17basic_string_viewIcSt11char_traitsIcEE T
_ZNK9libcamera11BayerFormat13toPixelFormatEv T
_ZNK9libcamera11BayerFormat17toV4L2PixelFormatEv T
_ZNK9libcamera11BayerFormat8toStringB5cxx11Ev T
_ZNK9libcamera11BayerFormat9transformENS_9TransformE T
_ZNK9libcamera11ControlInfo8toStringB5cxx11Ev T
_ZNK9libcamera11ControlList3getEj T
_ZNK9libcamera11ControlList4findEj T
_ZNK9libcamera11ControlList8containsEj T
_ZNK9libcamera11DeviceMatch5matchEPKNS_11MediaDeviceE T
_ZNK9libcamera11FrameBuffer6cookieEv T
_ZNK9libcamera11FrameBuffer6planesEv T
_ZNK9libcamera11FrameBuffer7requestEv T
_ZNK9libcamera11FrameBuffer8metadataEv T
_ZNK9libcamera11MediaDevice15getEntityByNameERKNSt7__cxx1112basic_stringIcSt11char_traitsIcESaIcEEE T
_ZNK9libcamera11MediaDevice9logPrefixB5cxx11Ev T
_ZNK9libcamera11MediaEntity10getPadByIdEj T
_ZNK9libcamera11MediaEntity13getPadByIndexEj T
_ZNK9libcamera11PixelFormat8toStringB5cxx11Ev T
_ZNK9libcamera11PixelFormateqERKS0_ T
_ZNK9libcamera11PixelFormatltERKS0_ T
_ZNK9libcamera11SoftwareIsp7isValidEv T
_ZNK9libcamera12CameraSensor11imageStreamEv T
_ZNK9libcamera12CameraSensor18embeddedDataFormatEv T
_ZNK9libcamera12CameraSensor18embeddedDataStreamEv T
_ZNK9libcamera12ControlValue4dataEv T
_ZNK9libcamera12ControlValue8toStringB5cxx11Ev T
_ZNK9libcamera12ControlValueeqERKS0_ T
_ZNK9libcamera13CameraManager7camerasEv T
_ZNK9libcamera13IPCUnixSocket7isBoundEv T
_ZNK9libcamera13ISICameraData17getMediaBusFormatEPNS_11PixelFormatE T
_ZNK9libcamera13ISICameraData20getRawMediaBusFormatEPNS_11PixelFormatE T
_ZNK9libcamera13ISICameraData20getYuvMediaBusFormatERKNS_11PixelFormatE T
_ZNK9libcamera13StreamFormats12pixelformatsEv T
_ZNK9libcamera13StreamFormats5rangeERKNS_11PixelFormatE T
_ZNK9libcamera13StreamFormats5sizesERKNS_11PixelFormatE T
_ZNK9libcamera13V4L2Subdevice12toColorSpaceERK18v4l2_mbus_framefmt T
_ZNK9libcamera13V4L2Subdevice9logPrefixB5cxx11Ev T
_ZNK9libcamera13Vc4CameraData10ispFormatsEv W
_ZNK9libcamera13Vc4CameraData10rawFormatsEv W
_ZNK9libcamera13Vc4CameraData16platformValidateEPNS_3RPi22RPiCameraConfigurationE T
_ZNK9libcamera14ControlInfoMap2atEj T
_ZNK9libcamera14ControlInfoMap4findEj T
_ZNK9libcamera14ControlInfoMap5countEj T
_ZNK9libcamera14PiSPCameraData10ispFormatsEv W
_ZNK9libcamera14PiSPCameraData10rawFormatsEv W
_ZNK9libcamera14PiSPCameraData16platformValidateEPNS_3RPi22RPiCameraConfigurationE T
_ZNK9libcamera14PiSPCameraData18adjustDeviceFormatERNS_16V4L2DeviceFormatE T
_ZNK9libcamera14ProcessManager5oldsaEv T
_ZNK9libcamera14ProcessManager9writePipeEv T
_ZNK9libcamera15CameraSensorRaw10bayerOrderENS_9TransformE T
_ZNK9libcamera15CameraSensorRaw10propertiesEv W
_ZNK9libcamera15CameraSensorRaw10resolutionEv T
_ZNK9libcamera15CameraSensorRaw10sensorInfoEPNS_19IPACameraSensorInfoE T
_ZNK9libcamera15CameraSensorRaw11imageStreamEv T
_ZNK9libcamera15CameraSensorRaw16computeTransformEPNS_11OrientationE T
_ZNK9libcamera15CameraSensorRaw16testPatternModesEv W
_ZNK9libcamera15CameraSensorRaw18embeddedDataFormatEv T
_ZNK9libcamera15CameraSensorRaw18embeddedDataStreamEv T
_ZNK9libcamera15CameraSensorRaw2idB5cxx11Ev W
_ZNK9libcamera15CameraSensorRaw5modelB5cxx11Ev W
_ZNK9libcamera15CameraSensorRaw5sizesEj T
_ZNK9libcamera15CameraSensorRaw6entityEv W
_ZNK9libcamera15CameraSensorRaw8controlsEv T
_ZNK9libcamera15CameraSensorRaw9getFormatERKSt6vectorIjSaIjEERKNS_4SizeES6_ T
_ZNK9libcamera15CameraSensorRaw9logPrefixB5cxx11Ev T
_ZNK9libcamera15CameraSensorRaw9mbusCodesEv W
_ZNK9libcamera15CameraSensorRaw9tryFormatEPNS_19V4L2SubdeviceFormatE T
_ZNK9libcamera15PipelineHandler17configurationFileERKNSt7__cxx1112basic_stringIcSt11char_traitsIcESaIcEEES8_b T
_ZNK9libcamera15PipelineHandler18hasPendingRequestsEPKNS_6CameraE T
_ZNK9libcamera15PixelFormatInfo6strideEjjj T
_ZNK9libcamera15PixelFormatInfo9frameSizeERKNS_4SizeEj T
_ZNK9libcamera15PixelFormatInfo9frameSizeERKNS_4SizeERKSt5arrayIjLm3EE T
_ZNK9libcamera15PixelFormatInfo9numPlanesEv T
_ZNK9libcamera15PixelFormatInfo9planeSizeEjjj T
_ZNK9libcamera15PixelFormatInfo9planeSizeERKNS_4SizeEjj T
_ZNK9libcamera15V4L2BufferCache5EntryeqERKNS_11FrameBufferE T
_ZNK9libcamera15V4L2BufferCache7isEmptyEv T
_ZNK9libcamera15V4L2PixelFormat11descriptionEv T
_ZNK9libcamera15V4L2PixelFormat13toPixelFormatEb T
_ZNK9libcamera15V4L2PixelFormat26isGenericLineBasedMetadataEv T
_ZNK9libcamera15V4L2PixelFormat8toStringB5cxx11Ev T
_ZNK9libcamera15V4L2VideoDevice17toV4L2PixelFormatERKNS_11PixelFormatE T
_ZNK9libcamera15V4L2VideoDevice9logPrefixB5cxx11Ev T
_ZNK9libcamera16ConverterFactoryINS_16V4L2M2MConverterEE14createInstanceEPNS_11MediaDeviceE W
_ZNK9libcamera16RkISP1CameraData4pipeEv T
_ZNK9libcamera16V4L2DeviceFormat8toStringB5cxx11Ev T
_ZNK9libcamera16V4L2M2MConverter12isConfiguredEPKNS_6StreamE T
_ZNK9libcamera16V4L2M2MConverter13V4L2M2MStream9logPrefixB5cxx11Ev T
_ZNK9libcamera16V4L2M2MConverter7isValidEv W
_ZNK9libcamera17MaliC55CameraData10resolutionEv T
_ZNK9libcamera17MaliC55CameraData13bestRawFormatEv T
_ZNK9libcamera17MaliC55CameraData14adjustRawSizesERKNS_11PixelFormatERKNS_4SizeE T
_ZNK9libcamera17MaliC55CameraData15adjustRawFormatERKNS_11PixelFormatE T
_ZNK9libcamera17MaliC55CameraData16pixfmtToMbusCodeERKNS_11PixelFormatE T
_ZNK9libcamera17MaliC55CameraData5sizesEj T
_ZNK9libcamera18CameraSensorLegacy10bayerOrderENS_9TransformE T
_ZNK9libcamera18CameraSensorLegacy10propertiesEv W
_ZNK9libcamera18CameraSensorLegacy10resolutionEv T
_ZNK9libcamera18CameraSensorLegacy10sensorInfoEPNS_19IPACameraSensorInfoE T
_ZNK9libcamera18CameraSensorLegacy16computeTransformEPNS_11OrientationE T
_ZNK9libcamera18CameraSensorLegacy16testPatternModesEv W
_ZNK9libcamera18CameraSensorLegacy2idB5cxx11Ev W
_ZNK9libcamera18CameraSensorLegacy5modelB5cxx11Ev W
_ZNK9libcamera18CameraSensorLegacy5sizesEj T
_ZNK9libcamera18CameraSensorLegacy6entityEv W
_ZNK9libcamera18CameraSensorLegacy8controlsEv T
_ZNK9libcamera18CameraSensorLegacy9getFormatERKSt6vectorIjSaIjEERKNS_4SizeES6_ T
_ZNK9libcamera18CameraSensorLegacy9logPrefixB5cxx11Ev T
_ZNK9libcamera18CameraSensorLegacy9mbusCodesEv W
_ZNK9libcamera18CameraSensorLegacy9tryFormatEPNS_19V4L2SubdeviceFormatE T
_ZNK9libcamera19CameraConfiguration2atEj T
_ZNK9libcamera19CameraConfiguration3endEv T
_ZNK9libcamera19CameraConfiguration4sizeEv T
_ZNK9libcamera19CameraConfiguration5beginEv T
_ZNK9libcamera19CameraConfiguration5emptyEv T
_ZNK9libcamera19CameraSensorFactoryINS_15CameraSensorRawEE5matchEPNS_11MediaEntityE W
_ZNK9libcamera19CameraSensorFactoryINS_18CameraSensorLegacyEE5matchEPNS_11MediaEntityE W
_ZNK9libcamera19SensorConfiguration7isValidEv T
_ZNK9libcamera19StreamConfiguration8toStringB5cxx11Ev T
_ZNK9libcamera19V4L2SubdeviceFormat8toStringB5cxx11Ev T
_ZNK9libcamera20FrameBufferAllocator7buffersEPNS_6StreamE T
_ZNK9libcamera22CameraControlValidator4nameB5cxx11Ev T
_ZNK9libcamera22CameraControlValidator8validateEj T
_ZNK9libcamera22PipelineHandlerFactoryINS_18PipelineHandlerISIEE14createInstanceEPNS_13CameraManagerE W
_ZNK9libcamera22PipelineHandlerFactoryINS_18PipelineHandlerUVCEE14createInstanceEPNS_13CameraManagerE W
_ZNK9libcamera22PipelineHandlerFactoryINS_18PipelineHandlerVc4EE14createInstanceEPNS_13CameraManagerE W
_ZNK9libcamera22PipelineHandlerFactoryINS_19PipelineHandlerPiSPEE14createInstanceEPNS_13CameraManagerE W
_ZNK9libcamera22PipelineHandlerFactoryINS_21PipelineHandlerRkISP1EE14createInstanceEPNS_13CameraManagerE W
_ZNK9libcamera22PipelineHandlerFactoryINS_21SimplePipelineHandlerEE14createInstanceEPNS_13CameraManagerE W
_ZNK9libcamera22PipelineHandlerFactoryINS_22PipelineHandlerMaliC55EE14createInstanceEPNS_13CameraManagerE W
_ZNK9libcamera26PipelineHandlerFactoryBase6createEPNS_13CameraManagerE T
_ZNK9libcamera3RPi10CameraData11scoreFormatEdd T
_ZNK9libcamera3RPi10CameraData12scaleIspCropERKNS_9RectangleE T
_ZNK9libcamera3RPi10CameraData14findBestFormatERKNS_4SizeEj T
_ZNK9libcamera3RPi6Stream10getBuffersEv T
_ZNK9libcamera3RPi6Stream11getBufferIdEPNS_11FrameBufferE T
_ZNK9libcamera3RPi6Stream11swDownscaleEv T
_ZNK9libcamera3RPi6Stream3devEv T
_ZNK9libcamera3RPi6Stream4nameB5cxx11Ev T
_ZNK9libcamera3RPi6Stream8getFlagsEv T
_ZNK9libcamera4Size10centeredToERKNS_5PointE T
_ZNK9libcamera4Size20boundedToAspectRatioERKS0_ T
_ZNK9libcamera4Size21expandedToAspectRatioERKS0_ T
_ZNK9libcamera4Size8toStringB5cxx11Ev T
_ZNK9libcamera4SizedvEf T
_ZNK9libcamera4SizemlEf T
_ZNK9libcamera5Point8toStringB5cxx11Ev T
_ZNK9libcamera6Camera10propertiesEv T
_ZNK9libcamera6Camera2idB5cxx11Ev T
_ZNK9libcamera6Camera7Private10isAcquiredEv T
_ZNK9libcamera6Camera7Private15isAccessAllowedENS1_5StateEbPKc T
_ZNK9libcamera6Camera7Private15isAccessAllowedENS1_5StateES2_bPKc T
_ZNK9libcamera6Camera7Private9isRunningEv T
_ZNK9libcamera6Camera7streamsEv T
_ZNK9libcamera6Camera8controlsEv T
_ZNK9libcamera6PubKey6verifyENS_4SpanIKhLm18446744073709551615EEES3_ T
_ZNK9libcamera7Request10findBufferEPKNS_6StreamE T
_ZNK9libcamera7Request17hasPendingBuffersEv T
_ZNK9libcamera7Request7Private17hasPendingBuffersEv T
_ZNK9libcamera7Request8sequenceEv T
_ZNK9libcamera7Request8toStringB5cxx11Ev T
_ZNK9libcamera8IPAProxy11resolvePathERKNSt7__cxx1112basic_stringIcSt11char_traitsIcESaIcEEE T
_ZNK9libcamera8IPAProxy17configurationFileERKNSt7__cxx1112basic_stringIcSt11char_traitsIcESaIcEEES8_ T
_ZNK9libcamera8MediaPad8toStringB5cxx11Ev T
_ZNK9libcamera9IPAModule4infoEv T
_ZNK9libcamera9IPAModule4pathB5cxx11Ev T
_ZNK9libcamera9IPAModule5matchEPNS_15PipelineHandlerEjj T
_ZNK9libcamera9IPAModule7isValidEv T
_ZNK9libcamera9IPAModule9logPrefixB5cxx11Ev T
_ZNK9libcamera9IPAModule9signatureEv T
_ZNK9libcamera9MediaLink8toStringB5cxx11Ev T
_ZNK9libcamera9Rectangle10enclosedInERKS0_ T
_ZNK9libcamera9Rectangle12translatedByERKNS_5PointE T
_ZNK9libcamera9Rectangle18transformedBetweenERKS0_S2_ T
_ZNK9libcamera9Rectangle6centerEv T
_ZNK9libcamera9Rectangle8scaledByERKNS_4SizeES3_ T
_ZNK9libcamera9Rectangle8toStringB5cxx11Ev T
_ZNK9libcamera9Rectangle9boundedToERKS0_ T
_ZNK9libcamera9SizeRange8containsERKNS_4SizeE T
_ZNK9libcamera9SizeRange8toStringB5cxx11Ev T
_ZNKSt18bad_variant_access4whatEv W
_ZNKSt19bad_optional_access4whatEv W
_ZNKSt5ctypeIcE8do_widenEc W
_ZNKSt5ctypeIcE9do_narrowEcc W
_ZNKSt7__cxx1112regex_traitsIcE16lookup_classnameIPKcEENS1_10_RegexMaskET_S6_b W
_ZNKSt7__cxx1112regex_traitsIcE17transform_primaryIPcEENS_12basic_stringIcSt11char_traitsIcESaIcEEET_S9_ W
_ZNKSt7__cxx1112regex_traitsIcE18lookup_collatenameIPKcEENS_12basic_stringIcSt11char_traitsIcESaIcEEET_SA_ W
_ZNKSt8__detail17_ReuseOrAllocNodeISaINS_10_Hash_nodeISt4pairIKPKN9libcamera9ControlIdENS3_11ControlInfoEELb0EEEEEclIJRKS9_EEEPSA_DpOT_ W
_ZNKSt8__detail9_ExecutorIN9__gnu_cxx17__normal_iteratorIPKcNSt7__cxx1112basic_stringIcSt11char_traitsIcESaIcEEEEESaINS5_9sub_matchISB_EEENS5_12regex_traitsIcEELb0EE21_M_is_line_terminatorEc W
_ZNKSt8__detail9_ExecutorIN9__gnu_cxx17__normal_iteratorIPKcNSt7__cxx1112basic_stringIcSt11char_traitsIcESaIcEEEEESaINS5_9sub_matchISB_EEENS5_12regex_traitsIcEELb1EE21_M_is_line_terminatorEc W
_ZNSt10_HashtableIjjSaIjENSt8__detail9_IdentityESt8equal_toIjESt4hashIjENS1_18_Mod_range_hashingENS1_20_Default_ranged_hashENS1_20_Prime_rehash_policyENS1_17_Hashtable_traitsILb0ELb1ELb1EEEE9_M_rehashEmRKm W
_ZNSt10_HashtableIjSt4pairIKjjESaIS2_ENSt8__detail10_Select1stESt8equal_toIjESt4hashIjENS4_18_Mod_range_hashingENS4_20_Default_ranged_hashENS4_20_Prime_rehash_policyENS4_17_Hashtable_traitsILb0ELb0ELb1EEEEC1IPKS2_EET_SJ_mRKS9_RKS7_RKS3_St17integral_constantIbLb1EE W
_ZNSt10_HashtableIjSt4pairIKjjESaIS2_ENSt8__detail10_Select1stESt8equal_toIjESt4hashIjENS4_18_Mod_range_hashingENS4_20_Default_ranged_hashENS4_20_Prime_rehash_policyENS4_17_Hashtable_traitsILb0ELb0ELb1EEEEC2IPKS2_EET_SJ_mRKS9_RKS7_RKS3_St17integral_constantIbLb1EE W
_ZNSt10_HashtableIjSt4pairIKjjESaIS2_ENSt8__detail10_Select1stESt8equal_toIjESt4hashIjENS4_18_Mod_range_hashingENS4_20_Default_ranged_hashENS4_20_Prime_rehash_policyENS4_17_Hashtable_traitsILb0ELb0ELb1EEEED1Ev W
_ZNSt10_HashtableIjSt4pairIKjjESaIS2_ENSt8__detail10_Select1stESt8equal_toIjESt4hashIjENS4_18_Mod_range_hashingENS4_20_Default_ranged_hashENS4_20_Prime_rehash_policyENS4_17_Hashtable_traitsILb0ELb0ELb1EEEED2Ev W
_ZNSt10_HashtableIjSt4pairIKjN9libcamera11BayerFormatEESaIS4_ENSt8__detail10_Select1stESt8equal_toIjESt4hashIjENS6_18_Mod_range_hashingENS6_20_Default_ranged_hashENS6_20_Prime_rehash_policyENS6_17_Hashtable_traitsILb0ELb0ELb1EEEE21_M_deallocate_bucketsEv W
_ZNSt10_HashtableIjSt4pairIKjN9libcamera11BayerFormatEESaIS4_ENSt8__detail10_Select1stESt8equal_toIjESt4hashIjENS6_18_Mod_range_hashingENS6_20_Default_ranged_hashENS6_20_Prime_rehash_policyENS6_17_Hashtable_traitsILb0ELb0ELb1EEEE5clearEv W
_ZNSt10_HashtableIjSt4pairIKjN9libcamera11BayerFormatEESaIS4_ENSt8__detail10_Select1stESt8equal_toIjESt4hashIjENS6_18_Mod_range_hashingENS6_20_Default_ranged_hashENS6_20_Prime_rehash_policyENS6_17_Hashtable_traitsILb0ELb0ELb1EEEE9_M_rehashEmRKm W
_ZNSt10_HashtableIjSt4pairIKjN9libcamera11BayerFormatEESaIS4_ENSt8__detail10_Select1stESt8equal_toIjESt4hashIjENS6_18_Mod_range_hashingENS6_20_Default_ranged_hashENS6_20_Prime_rehash_policyENS6_17_Hashtable_traitsILb0ELb0ELb1EEEEC1IPKS4_EET_SL_mRKSB_RKS9_RKS5_St17integral_constantIbLb1EE W
_ZNSt10_HashtableIjSt4pairIKjN9libcamera11BayerFormatEESaIS4_ENSt8__detail10_Select1stESt8equal_toIjESt4hashIjENS6_18_Mod_range_hashingENS6_20_Default_ranged_hashENS6_20_Prime_rehash_policyENS6_17_Hashtable_traitsILb0ELb0ELb1EEEEC2IPKS4_EET_SL_mRKSB_RKS9_RKS5_St17integral_constantIbLb1EE W
_ZNSt10_HashtableIjSt4pairIKjN9libcamera12ControlValueEESaIS4_ENSt8__detail10_Select1stESt8equal_toIjESt4hashIjENS6_18_Mod_range_hashingENS6_20_Default_ranged_hashENS6_20_Prime_rehash_policyENS6_17_Hashtable_traitsILb0ELb0ELb1EEEE18_M_assign_elementsIRKSH_EEvOT_ W
_ZNSt10_HashtableIjSt4pairIKjN9libcamera12ControlValueEESaIS4_ENSt8__detail10_Select1stESt8equal_toIjESt4hashIjENS6_18_Mod_range_hashingENS6_20_Default_ranged_hashENS6_20_Prime_rehash_policyENS6_17_Hashtable_traitsILb0ELb0ELb1EEEE21_M_deallocate_bucketsEv W
_ZNSt10_HashtableIjSt4pairIKjN9libcamera12ControlValueEESaIS4_ENSt8__detail10_Select1stESt8equal_toIjESt4hashIjENS6_18_Mod_range_hashingENS6_20_Default_ranged_hashENS6_20_Prime_rehash_policyENS6_17_Hashtable_traitsILb0ELb0ELb1EEEE5clearEv W
_ZNSt10_HashtableIjSt4pairIKjN9libcamera12ControlValueEESaIS4_ENSt8__detail10_Select1stESt8equal_toIjESt4hashIjENS6_18_Mod_range_hashingENS6_20_Default_ranged_hashENS6_20_Prime_rehash_policyENS6_17_Hashtable_traitsILb0ELb0ELb1EEEE9_M_assignIRKSH_NS6_17_ReuseOrAllocNodeISaINS6_10_Hash_nodeIS4_Lb0EEEEEEEEvOT_RKT0_ W
_ZNSt10_HashtableIjSt4pairIKjN9libcamera12ControlValueEESaIS4_ENSt8__detail10_Select1stESt8equal_toIjESt4hashIjENS6_18_Mod_range_hashingENS6_20_Default_ranged_hashENS6_20_Prime_rehash_policyENS6_17_Hashtable_traitsILb0ELb0ELb1EEEE9_M_rehashEmRKm W
_ZNSt10_HashtableIjSt4pairIKjN9libcamera15DelayedControls13ControlParamsEESaIS5_ENSt8__detail10_Select1stESt8equal_toIjESt4hashIjENS7_18_Mod_range_hashingENS7_20_Default_ranged_hashENS7_20_Prime_rehash_policyENS7_17_Hashtable_traitsILb0ELb0ELb1EEEEC1IPKS5_EET_SM_mRKSC_RKSA_RKS6_St17integral_constantIbLb1EE W
_ZNSt10_HashtableIjSt4pairIKjN9libcamera15DelayedControls13ControlParamsEESaIS5_ENSt8__detail10_Select1stESt8equal_toIjESt4hashIjENS7_18_Mod_range_hashingENS7_20_Default_ranged_hashENS7_20_Prime_rehash_policyENS7_17_Hashtable_traitsILb0ELb0ELb1EEEEC2IPKS5_EET_SM_mRKSC_RKSA_RKS6_St17integral_constantIbLb1EE W
_ZNSt10_HashtableIjSt4pairIKjN9libcamera15DelayedControls13ControlParamsEESaIS5_ENSt8__detail10_Select1stESt8equal_toIjESt4hashIjENS7_18_Mod_range_hashingENS7_20_Default_ranged_hashENS7_20_Prime_rehash_policyENS7_17_Hashtable_traitsILb0ELb0ELb1EEEED1Ev W
_ZNSt10_HashtableIjSt4pairIKjN9libcamera15DelayedControls13ControlParamsEESaIS5_ENSt8__detail10_Select1stESt8equal_toIjESt4hashIjENS7_18_Mod_range_hashingENS7_20_Default_ranged_hashENS7_20_Prime_rehash_policyENS7_17_Hashtable_traitsILb0ELb0ELb1EEEED2Ev W
_ZNSt10_HashtableIjSt4pairIKjN9libcamera3RPi12BufferObjectEESaIS5_ENSt8__detail10_Select1stESt8equal_toIjESt4hashIjENS7_18_Mod_range_hashingENS7_20_Default_ranged_hashENS7_20_Prime_rehash_policyENS7_17_Hashtable_traitsILb0ELb0ELb1EEEE21_M_deallocate_bucketsEv W
_ZNSt10_HashtableIjSt4pairIKjN9libcamera3RPi12BufferObjectEESaIS5_ENSt8__detail10_Select1stESt8equal_toIjESt4hashIjENS7_18_Mod_range_hashingENS7_20_Default_ranged_hashENS7_20_Prime_rehash_policyENS7_17_Hashtable_traitsILb0ELb0ELb1EEEE5clearEv W
_ZNSt10_HashtableIjSt4pairIKjN9libcamera3RPi12BufferObjectEESaIS5_ENSt8__detail10_Select1stESt8equal_toIjESt4hashIjENS7_18_Mod_range_hashingENS7_20_Default_ranged_hashENS7_20_Prime_rehash_policyENS7_17_Hashtable_traitsILb0ELb0ELb1EEEE9_M_rehashEmRKm W
_ZNSt10_HashtableIjSt4pairIKjN9libcamera3RPi15DelayedControls13ControlParamsEESaIS6_ENSt8__detail10_Select1stESt8equal_toIjESt4hashIjENS8_18_Mod_range_hashingENS8_20_Default_ranged_hashENS8_20_Prime_rehash_policyENS8_17_Hashtable_traitsILb0ELb0ELb1EEEEC1IPKS6_EET_SN_mRKSD_RKSB_RKS7_St17integral_constantIbLb1EE W
_ZNSt10_HashtableIjSt4pairIKjN9libcamera3RPi15DelayedControls13ControlParamsEESaIS6_ENSt8__detail10_Select1stESt8equal_toIjESt4hashIjENS8_18_Mod_range_hashingENS8_20_Default_ranged_hashENS8_20_Prime_rehash_policyENS8_17_Hashtable_traitsILb0ELb0ELb1EEEEC2IPKS6_EET_SN_mRKSD_RKSB_RKS7_St17integral_constantIbLb1EE W
_ZNSt10_HashtableIjSt4pairIKjN9libcamera3RPi15DelayedControls13ControlParamsEESaIS6_ENSt8__detail10_Select1stESt8equal_toIjESt4hashIjENS8_18_Mod_range_hashingENS8_20_Default_ranged_hashENS8_20_Prime_rehash_policyENS8_17_Hashtable_traitsILb0ELb0ELb1EEEED1Ev W
_ZNSt10_HashtableIjSt4pairIKjN9libcamera3RPi15DelayedControls13ControlParamsEESaIS6_ENSt8__detail10_Select1stESt8equal_toIjESt4hashIjENS8_18_Mod_range_hashingENS8_20_Default_ranged_hashENS8_20_Prime_rehash_policyENS8_17_Hashtable_traitsILb0ELb0ELb1EEEED2Ev W
_ZNSt10_HashtableIjSt4pairIKjPKN9libcamera9ControlIdEESaIS6_ENSt8__detail10_Select1stESt8equal_toIjESt4hashIjENS8_18_Mod_range_hashingENS8_20_Default_ranged_hashENS8_20_Prime_rehash_policyENS8_17_Hashtable_traitsILb0ELb0ELb1EEEE21_M_deallocate_bucketsEv W
_ZNSt10_HashtableIjSt4pairIKjPKN9libcamera9ControlIdEESaIS6_ENSt8__detail10_Select1stESt8equal_toIjESt4hashIjENS8_18_Mod_range_hashingENS8_20_Default_ranged_hashENS8_20_Prime_rehash_policyENS8_17_Hashtable_traitsILb0ELb0ELb1EEEE5clearEv W
_ZNSt10_HashtableIjSt4pairIKjPKN9libcamera9ControlIdEESaIS6_ENSt8__detail10_Select1stESt8equal_toIjESt4hashIjENS8_18_Mod_range_hashingENS8_20_Default_ranged_hashENS8_20_Prime_rehash_policyENS8_17_Hashtable_traitsILb0ELb0ELb1EEEE9_M_rehashEmRKm W
_ZNSt10_HashtableIjSt4pairIKjPKN9libcamera9ControlIdEESaIS6_ENSt8__detail10_Select1stESt8equal_toIjESt4hashIjENS8_18_Mod_range_hashingENS8_20_Default_ranged_hashENS8_20_Prime_rehash_policyENS8_17_Hashtable_traitsILb0ELb0ELb1EEEEC1IPKS6_EET_SN_mRKSD_RKSB_RKS7_St17integral_constantIbLb1EE W
_ZNSt10_HashtableIjSt4pairIKjPKN9libcamera9ControlIdEESaIS6_ENSt8__detail10_Select1stESt8equal_toIjESt4hashIjENS8_18_Mod_range_hashingENS8_20_Default_ranged_hashENS8_20_Prime_rehash_policyENS8_17_Hashtable_traitsILb0ELb0ELb1EEEEC2IPKS6_EET_SN_mRKSD_RKSB_RKS7_St17integral_constantIbLb1EE W
_ZNSt10_HashtableIN9libcamera15V4L2PixelFormatES1_SaIS1_ENSt8__detail9_IdentityESt8equal_toIS1_ESt4hashIS1_ENS3_18_Mod_range_hashingENS3_20_Default_ranged_hashENS3_20_Prime_rehash_policyENS3_17_Hashtable_traitsILb0ELb1ELb1EEEE21_M_deallocate_bucketsEv W
_ZNSt10_HashtableIN9libcamera15V4L2PixelFormatES1_SaIS1_ENSt8__detail9_IdentityESt8equal_toIS1_ESt4hashIS1_ENS3_18_Mod_range_hashingENS3_20_Default_ranged_hashENS3_20_Prime_rehash_policyENS3_17_Hashtable_traitsILb0ELb1ELb1EEEE5clearEv W
_ZNSt10_HashtableIN9libcamera15V4L2PixelFormatES1_SaIS1_ENSt8__detail9_IdentityESt8equal_toIS1_ESt4hashIS1_ENS3_18_Mod_range_hashingENS3_20_Default_ranged_hashENS3_20_Prime_rehash_policyENS3_17_Hashtable_traitsILb0ELb1ELb1EEEEC1IN9__gnu_cxx17__normal_iteratorIPKS1_St6vectorIS1_S2_EEEEET_SN_mRKS8_RKS6_RKS2_St17integral_constantIbLb1EE W
_ZNSt10_HashtableIN9libcamera15V4L2PixelFormatES1_SaIS1_ENSt8__detail9_IdentityESt8equal_toIS1_ESt4hashIS1_ENS3_18_Mod_range_hashingENS3_20_Default_ranged_hashENS3_20_Prime_rehash_policyENS3_17_Hashtable_traitsILb0ELb1ELb1EEEEC2IN9__gnu_cxx17__normal_iteratorIPKS1_St6vectorIS1_S2_EEEEET_SN_mRKS8_RKS6_RKS2_St17integral_constantIbLb1EE W
_ZNSt10_HashtableIPKN9libcamera3RPi6StreamESt4pairIKS4_PNS0_11FrameBufferEESaIS9_ENSt8__detail10_Select1stESt8equal_toIS4_ESt4hashIS4_ENSB_18_Mod_range_hashingENSB_20_Default_ranged_hashENSB_20_Prime_rehash_policyENSB_17_Hashtable_traitsILb0ELb0ELb1EEEE21_M_insert_unique_nodeEmmPNSB_10_Hash_nodeIS9_Lb0EEEm W
_ZNSt10_HashtableIPKN9libcamera3RPi6StreamESt4pairIKS4_PNS0_11FrameBufferEESaIS9_ENSt8__detail10_Select1stESt8equal_toIS4_ESt4hashIS4_ENSB_18_Mod_range_hashingENSB_20_Default_ranged_hashENSB_20_Prime_rehash_policyENSB_17_Hashtable_traitsILb0ELb0ELb1EEEE9_M_rehashEmRKm W
_ZNSt10_HashtableIPKN9libcamera9ControlIdESt4pairIKS3_NS0_11ControlInfoEESaIS7_ENSt8__detail10_Select1stESt8equal_toIS3_ESt4hashIS3_ENS9_18_Mod_range_hashingENS9_20_Default_ranged_hashENS9_20_Prime_rehash_policyENS9_17_Hashtable_traitsILb0ELb0ELb1EEEE12_Scoped_nodeD1Ev W
_ZNSt10_HashtableIPKN9libcamera9ControlIdESt4pairIKS3_NS0_11ControlInfoEESaIS7_ENSt8__detail10_Select1stESt8equal_toIS3_ESt4hashIS3_ENS9_18_Mod_range_hashingENS9_20_Default_ranged_hashENS9_20_Prime_rehash_policyENS9_17_Hashtable_traitsILb0ELb0ELb1EEEE12_Scoped_nodeD2Ev W
_ZNSt10_HashtableIPKN9libcamera9ControlIdESt4pairIKS3_NS0_11ControlInfoEESaIS7_ENSt8__detail10_Select1stESt8equal_toIS3_ESt4hashIS3_ENS9_18_Mod_range_hashingENS9_20_Default_ranged_hashENS9_20_Prime_rehash_policyENS9_17_Hashtable_traitsILb0ELb0ELb1EEEE18_M_assign_elementsIRKSK_EEvOT_ W
_ZNSt10_HashtableIPKN9libcamera9ControlIdESt4pairIKS3_NS0_11ControlInfoEESaIS7_ENSt8__detail10_Select1stESt8equal_toIS3_ESt4hashIS3_ENS9_18_Mod_range_hashingENS9_20_Default_ranged_hashENS9_20_Prime_rehash_policyENS9_17_Hashtable_traitsILb0ELb0ELb1EEEE21_M_deallocate_bucketsEv W
_ZNSt10_HashtableIPKN9libcamera9ControlIdESt4pairIKS3_NS0_11ControlInfoEESaIS7_ENSt8__detail10_Select1stESt8equal_toIS3_ESt4hashIS3_ENS9_18_Mod_range_hashingENS9_20_Default_ranged_hashENS9_20_Prime_rehash_policyENS9_17_Hashtable_traitsILb0ELb0ELb1EEEE21_M_insert_unique_nodeEmmPNS9_10_Hash_nodeIS7_Lb0EEEm W
_ZNSt10_HashtableIPKN9libcamera9ControlIdESt4pairIKS3_NS0_11ControlInfoEESaIS7_ENSt8__detail10_Select1stESt8equal_toIS3_ESt4hashIS3_ENS9_18_Mod_range_hashingENS9_20_Default_ranged_hashENS9_20_Prime_rehash_policyENS9_17_Hashtable_traitsILb0ELb0ELb1EEEE5clearEv W
_ZNSt10_HashtableIPKN9libcamera9ControlIdESt4pairIKS3_NS0_11ControlInfoEESaIS7_ENSt8__detail10_Select1stESt8equal_toIS3_ESt4hashIS3_ENS9_18_Mod_range_hashingENS9_20_Default_ranged_hashENS9_20_Prime_rehash_policyENS9_17_Hashtable_traitsILb0ELb0ELb1EEEE9_M_assignIRKSK_NS9_17_ReuseOrAllocNodeISaINS9_10_Hash_nodeIS7_Lb0EEEEEEEEvOT_RKT0_ W
_ZNSt10_HashtableIPKN9libcamera9ControlIdESt4pairIKS3_NS0_11ControlInfoEESaIS7_ENSt8__detail10_Select1stESt8equal_toIS3_ESt4hashIS3_ENS9_18_Mod_range_hashingENS9_20_Default_ranged_hashENS9_20_Prime_rehash_policyENS9_17_Hashtable_traitsILb0ELb0ELb1EEEE9_M_rehashEmRKm W
_ZNSt10_HashtableIPKN9libcamera9ControlIdESt4pairIKS3_NS0_11ControlInfoEESaIS7_ENSt8__detail10_Select1stESt8equal_toIS3_ESt4hashIS3_ENS9_18_Mod_range_hashingENS9_20_Default_ranged_hashENS9_20_Prime_rehash_policyENS9_17_Hashtable_traitsILb0ELb0ELb1EEEEC1IPKS7_EET_SO_mRKSE_RKSC_RKS8_St17integral_constantIbLb1EE W
_ZNSt10_HashtableIPKN9libcamera9ControlIdESt4pairIKS3_NS0_11ControlInfoEESaIS7_ENSt8__detail10_Select1stESt8equal_toIS3_ESt4hashIS3_ENS9_18_Mod_range_hashingENS9_20_Default_ranged_hashENS9_20_Prime_rehash_policyENS9_17_Hashtable_traitsILb0ELb0ELb1EEEEC2IPKS7_EET_SO_mRKSE_RKSC_RKS8_St17integral_constantIbLb1EE W
_ZNSt10_HashtableIPKN9libcamera9ControlIdESt4pairIKS3_NS0_11ControlInfoEESaIS7_ENSt8__detail10_Select1stESt8equal_toIS3_ESt4hashIS3_ENS9_18_Mod_range_hashingENS9_20_Default_ranged_hashENS9_20_Prime_rehash_policyENS9_17_Hashtable_traitsILb0ELb0ELb1EEEED1Ev W
_ZNSt10_HashtableIPKN9libcamera9ControlIdESt4pairIKS3_NS0_11ControlInfoEESaIS7_ENSt8__detail10_Select1stESt8equal_toIS3_ESt4hashIS3_ENS9_18_Mod_range_hashingENS9_20_Default_ranged_hashENS9_20_Prime_rehash_policyENS9_17_Hashtable_traitsILb0ELb0ELb1EEEED2Ev W
_ZNSt10_HashtableIPKN9libcamera9ControlIdESt4pairIKS3_NS0_15DelayedControls13ControlParamsEESaIS8_ENSt8__detail10_Select1stESt8equal_toIS3_ESt4hashIS3_ENSA_18_Mod_range_hashingENSA_20_Default_ranged_hashENSA_20_Prime_rehash_policyENSA_17_Hashtable_traitsILb0ELb0ELb1EEEE9_M_rehashEmRKm W
_ZNSt10_HashtableIPKN9libcamera9ControlIdESt4pairIKS3_NS0_15DelayedControls17ControlRingBufferEESaIS8_ENSt8__detail10_Select1stESt8equal_toIS3_ESt4hashIS3_ENSA_18_Mod_range_hashingENSA_20_Default_ranged_hashENSA_20_Prime_rehash_policyENSA_17_Hashtable_traitsILb0ELb0ELb1EEEE9_M_rehashEmRKm W
_ZNSt10_HashtableIPKN9libcamera9ControlIdESt4pairIKS3_NS0_3RPi15DelayedControls10RingBufferINS7_4InfoEEEESaISB_ENSt8__detail10_Select1stESt8equal_toIS3_ESt4hashIS3_ENSD_18_Mod_range_hashingENSD_20_Default_ranged_hashENSD_20_Prime_rehash_policyENSD_17_Hashtable_traitsILb0ELb0ELb1EEEE9_M_rehashEmRKm W
_ZNSt10_HashtableIPKN9libcamera9ControlIdESt4pairIKS3_NS0_3RPi15DelayedControls13ControlParamsEESaIS9_ENSt8__detail10_Select1stESt8equal_toIS3_ESt4hashIS3_ENSB_18_Mod_range_hashingENSB_20_Default_ranged_hashENSB_20_Prime_rehash_policyENSB_17_Hashtable_traitsILb0ELb0ELb1EEEE9_M_rehashEmRKm W
_ZNSt10_HashtableIPN9libcamera11FrameBufferES2_SaIS2_ENSt8__detail9_IdentityESt8equal_toIS2_ESt4hashIS2_ENS4_18_Mod_range_hashingENS4_20_Default_ranged_hashENS4_20_Prime_rehash_policyENS4_17_Hashtable_traitsILb0ELb1ELb1EEEE9_M_rehashEmRKm W
_ZNSt10_HashtableIPN9libcamera11MediaEntityES2_SaIS2_ENSt8__detail9_IdentityESt8equal_toIS2_ESt4hashIS2_ENS4_18_Mod_range_hashingENS4_20_Default_ranged_hashENS4_20_Prime_rehash_policyENS4_17_Hashtable_traitsILb0ELb1ELb1EEEE9_M_rehashEmRKm W
_ZNSt10unique_ptrI12yaml_event_sN9libcamera17YamlParserContext12EventDeleterEED1Ev W
_ZNSt10unique_ptrI12yaml_event_sN9libcamera17YamlParserContext12EventDeleterEED2Ev W
_ZNSt10unique_ptrIN9libcamera10YamlObjectESt14default_deleteIS1_EED1Ev W
_ZNSt10unique_ptrIN9libcamera10YamlObjectESt14default_deleteIS1_EED2Ev W
_ZNSt10unique_ptrIN9libcamera13V4L2M2MDeviceESt14default_deleteIS1_EED1Ev W
_ZNSt10unique_ptrIN9libcamera13V4L2M2MDeviceESt14default_deleteIS1_EED2Ev W
_ZNSt10unique_ptrIN9libcamera9ControlIdESt14default_deleteIS1_EED1Ev W
_ZNSt10unique_ptrIN9libcamera9ControlIdESt14default_deleteIS1_EED2Ev W
_ZNSt11_Deque_baseIlSaIlEE17_M_initialize_mapEm W
_ZNSt11_Deque_baseIlSaIlEED1Ev W
_ZNSt11_Deque_baseIlSaIlEED2Ev W
_ZNSt11_Deque_baseIN9libcamera13Vc4CameraData10BayerFrameESaIS2_EE17_M_initialize_mapEm W
_ZNSt11_Deque_baseIN9libcamera14PiSPCameraData6CfeJobESaIS2_EE17_M_initialize_mapEm W
_ZNSt11_Deque_baseIPN9libcamera11FrameBufferESaIS2_EE17_M_initialize_mapEm W
_ZNSt11_Deque_baseIPN9libcamera11FrameBufferESaIS2_EED1Ev W
_ZNSt11_Deque_baseIPN9libcamera11FrameBufferESaIS2_EED2Ev W
_ZNSt11_Tuple_implILm0EJSt6vectorIhSaIhEES0_IN9libcamera8SharedFDESaIS4_EEEEC1ERKS2_RKS6_ W
_ZNSt11_Tuple_implILm0EJSt6vectorIhSaIhEES0_IN9libcamera8SharedFDESaIS4_EEEEC2ERKS2_RKS6_ W
_ZNSt12_Vector_baseIN9libcamera12ControlValueESaIS1_EED1Ev W
_ZNSt12_Vector_baseIN9libcamera12ControlValueESaIS1_EED2Ev W
_ZNSt13unordered_mapIjjSt4hashIjESt8equal_toIjESaISt4pairIKjjEEED1Ev W
_ZNSt13unordered_mapIjjSt4hashIjESt8equal_toIjESaISt4pairIKjjEEED2Ev W
_ZNSt13unordered_mapIjN9libcamera11BayerFormatESt4hashIjESt8equal_toIjESaISt4pairIKjS1_EEED1Ev W
_ZNSt13unordered_mapIjN9libcamera11BayerFormatESt4hashIjESt8equal_toIjESaISt4pairIKjS1_EEED2Ev W
_ZNSt13unordered_mapIjPKN9libcamera9ControlIdESt4hashIjESt8equal_toIjESaISt4pairIKjS3_EEED1Ev W
_ZNSt13unordered_mapIjPKN9libcamera9ControlIdESt4hashIjESt8equal_toIjESaISt4pairIKjS3_EEED2Ev W
_ZNSt15_Sp_counted_ptrIDnLN9__gnu_cxx12_Lock_policyE2EE10_M_disposeEv W
_ZNSt16_Sp_counted_baseILN9__gnu_cxx12_Lock_policyE2EE10_M_destroyEv W
_ZNSt16_Sp_counted_baseILN9__gnu_cxx12_Lock_policyE2EE10_M_releaseEv W
_ZNSt16_Sp_counted_baseILN9__gnu_cxx12_Lock_policyE2EE15_M_weak_releaseEv W
_ZNSt16_Sp_counted_baseILN9__gnu_cxx12_Lock_policyE2EE24_M_release_last_use_coldEv W
_ZNSt17_Function_handlerIFbcENSt8__detail11_AnyMatcherINSt7__cxx1112regex_traitsIcEELb0ELb0ELb0EEEE10_M_managerERSt9_Any_dataRKS8_St18_Manager_operation W
_ZNSt17_Function_handlerIFbcENSt8__detail11_AnyMatcherINSt7__cxx1112regex_traitsIcEELb0ELb0ELb0EEEE9_M_invokeERKSt9_Any_dataOc W
_ZNSt17_Function_handlerIFbcENSt8__detail11_AnyMatcherINSt7__cxx1112regex_traitsIcEELb0ELb0ELb1EEEE10_M_managerERSt9_Any_dataRKS8_St18_Manager_operation W
_ZNSt17_Function_handlerIFbcENSt8__detail11_AnyMatcherINSt7__cxx1112regex_traitsIcEELb0ELb0ELb1EEEE9_M_invokeERKSt9_Any_dataOc W
_ZNSt17_Function_handlerIFbcENSt8__detail11_AnyMatcherINSt7__cxx1112regex_traitsIcEELb0ELb1ELb0EEEE10_M_managerERSt9_Any_dataRKS8_St18_Manager_operation W
_ZNSt17_Function_handlerIFbcENSt8__detail11_AnyMatcherINSt7__cxx1112regex_traitsIcEELb0ELb1ELb0EEEE9_M_invokeERKSt9_Any_dataOc W
_ZNSt17_Function_handlerIFbcENSt8__detail11_AnyMatcherINSt7__cxx1112regex_traitsIcEELb0ELb1ELb1EEEE10_M_managerERSt9_Any_dataRKS8_St18_Manager_operation W
_ZNSt17_Function_handlerIFbcENSt8__detail11_AnyMatcherINSt7__cxx1112regex_traitsIcEELb0ELb1ELb1EEEE9_M_invokeERKSt9_Any_dataOc W
_ZNSt17_Function_handlerIFbcENSt8__detail11_AnyMatcherINSt7__cxx1112regex_traitsIcEELb1ELb0ELb0EEEE10_M_managerERSt9_Any_dataRKS8_St18_Manager_operation W
_ZNSt17_Function_handlerIFbcENSt8__detail11_AnyMatcherINSt7__cxx1112regex_traitsIcEELb1ELb0ELb0EEEE9_M_invokeERKSt9_Any_dataOc W
_ZNSt17_Function_handlerIFbcENSt8__detail11_AnyMatcherINSt7__cxx1112regex_traitsIcEELb1ELb0ELb1EEEE10_M_managerERSt9_Any_dataRKS8_St18_Manager_operation W
_ZNSt17_Function_handlerIFbcENSt8__detail11_AnyMatcherINSt7__cxx1112regex_traitsIcEELb1ELb0ELb1EEEE9_M_invokeERKSt9_Any_dataOc W
_ZNSt17_Function_handlerIFbcENSt8__detail11_AnyMatcherINSt7__cxx1112regex_traitsIcEELb1ELb1ELb0EEEE10_M_managerERSt9_Any_dataRKS8_St18_Manager_operation W
_ZNSt17_Function_handlerIFbcENSt8__detail11_AnyMatcherINSt7__cxx1112regex_traitsIcEELb1ELb1ELb0EEEE9_M_invokeERKSt9_Any_dataOc W
_ZNSt17_Function_handlerIFbcENSt8__detail11_AnyMatcherINSt7__cxx1112regex_traitsIcEELb1ELb1ELb1EEEE10_M_managerERSt9_Any_dataRKS8_St18_Manager_operation W
_ZNSt17_Function_handlerIFbcENSt8__detail11_AnyMatcherINSt7__cxx1112regex_traitsIcEELb1ELb1ELb1EEEE9_M_invokeERKSt9_Any_dataOc W
_ZNSt17_Function_handlerIFbcENSt8__detail12_CharMatcherINSt7__cxx1112regex_traitsIcEELb0ELb0EEEE10_M_managerERSt9_Any_dataRKS8_St18_Manager_operation W
_ZNSt17_Function_handlerIFbcENSt8__detail12_CharMatcherINSt7__cxx1112regex_traitsIcEELb0ELb0EEEE9_M_invokeERKSt9_Any_dataOc W
_ZNSt17_Function_handlerIFbcENSt8__detail12_CharMatcherINSt7__cxx1112regex_traitsIcEELb0ELb1EEEE10_M_managerERSt9_Any_dataRKS8_St18_Manager_operation W
_ZNSt17_Function_handlerIFbcENSt8__detail12_CharMatcherINSt7__cxx1112regex_traitsIcEELb0ELb1EEEE9_M_invokeERKSt9_Any_dataOc W
_ZNSt17_Function_handlerIFbcENSt8__detail12_CharMatcherINSt7__cxx1112regex_traitsIcEELb1ELb0EEEE10_M_managerERSt9_Any_dataRKS8_St18_Manager_operation W
_ZNSt17_Function_handlerIFbcENSt8__detail12_CharMatcherINSt7__cxx1112regex_traitsIcEELb1ELb0EEEE9_M_invokeERKSt9_Any_dataOc W
_ZNSt17_Function_handlerIFbcENSt8__detail12_CharMatcherINSt7__cxx1112regex_traitsIcEELb1ELb1EEEE10_M_managerERSt9_Any_dataRKS8_St18_Manager_operation W
_ZNSt17_Function_handlerIFbcENSt8__detail12_CharMatcherINSt7__cxx1112regex_traitsIcEELb1ELb1EEEE9_M_invokeERKSt9_Any_dataOc W
_ZNSt17_Function_handlerIFbcENSt8__detail15_BracketMatcherINSt7__cxx1112regex_traitsIcEELb0ELb0EEEE10_M_managerERSt9_Any_dataRKS8_St18_Manager_operation W
_ZNSt17_Function_handlerIFbcENSt8__detail15_BracketMatcherINSt7__cxx1112regex_traitsIcEELb0ELb0EEEE9_M_invokeERKSt9_Any_dataOc W
_ZNSt17_Function_handlerIFbcENSt8__detail15_BracketMatcherINSt7__cxx1112regex_traitsIcEELb0ELb1EEEE10_M_managerERSt9_Any_dataRKS8_St18_Manager_operation W
_ZNSt17_Function_handlerIFbcENSt8__detail15_BracketMatcherINSt7__cxx1112regex_traitsIcEELb0ELb1EEEE9_M_invokeERKSt9_Any_dataOc W
_ZNSt17_Function_handlerIFbcENSt8__detail15_BracketMatcherINSt7__cxx1112regex_traitsIcEELb1ELb0EEEE10_M_managerERSt9_Any_dataRKS8_St18_Manager_operation W
_ZNSt17_Function_handlerIFbcENSt8__detail15_BracketMatcherINSt7__cxx1112regex_traitsIcEELb1ELb0EEEE9_M_invokeERKSt9_Any_dataOc W
_ZNSt17_Function_handlerIFbcENSt8__detail15_BracketMatcherINSt7__cxx1112regex_traitsIcEELb1ELb1EEEE10_M_managerERSt9_Any_dataRKS8_St18_Manager_operation W
_ZNSt17_Function_handlerIFbcENSt8__detail15_BracketMatcherINSt7__cxx1112regex_traitsIcEELb1ELb1EEEE9_M_invokeERKSt9_Any_dataOc W
_ZNSt17_Function_handlerIFbRSt14_List_iteratorIPN9libcamera15BoundMethodBaseEEEZNS1_6SignalIJEE10disconnectEvEUlS5_E_E10_M_managerERSt9_Any_dataRKSB_St18_Manager_operation W
_ZNSt17_Function_handlerIFbRSt14_List_iteratorIPN9libcamera15BoundMethodBaseEEEZNS1_6SignalIJEE10disconnectEvEUlS5_E_E9_M_invokeERKSt9_Any_dataS5_ W
_ZNSt17_Function_handlerIFbRSt14_List_iteratorIPN9libcamera15BoundMethodBaseEEEZNS1_6SignalIJEE10disconnectINS1_13CameraManager7PrivateEEEvPT_EUlS5_E_E10_M_managerERSt9_Any_dataRKSG_St18_Manager_operation W
_ZNSt17_Function_handlerIFbRSt14_List_iteratorIPN9libcamera15BoundMethodBaseEEEZNS1_6SignalIJEE10disconnectINS1_13CameraManager7PrivateEEEvPT_EUlS5_E_E9_M_invokeERKSt9_Any_dataS5_ W
_ZNSt17_Function_handlerIFbRSt14_List_iteratorIPN9libcamera15BoundMethodBaseEEEZNS1_6SignalIJEE10disconnectINS1_15PipelineHandlerEEEvPT_EUlS5_E_E10_M_managerERSt9_Any_dataRKSF_St18_Manager_operation W
_ZNSt17_Function_handlerIFbRSt14_List_iteratorIPN9libcamera15BoundMethodBaseEEEZNS1_6SignalIJEE10disconnectINS1_15PipelineHandlerEEEvPT_EUlS5_E_E9_M_invokeERKSt9_Any_dataS5_ W
_ZNSt17_Function_handlerIFbRSt14_List_iteratorIPN9libcamera15BoundMethodBaseEEEZNS1_6SignalIJjEE10disconnectEvEUlS5_E_E10_M_managerERSt9_Any_dataRKSB_St18_Manager_operation W
_ZNSt17_Function_handlerIFbRSt14_List_iteratorIPN9libcamera15BoundMethodBaseEEEZNS1_6SignalIJjEE10disconnectEvEUlS5_E_E9_M_invokeERKSt9_Any_dataS5_ W
_ZNSt17_Function_handlerIFbRSt14_List_iteratorIPN9libcamera15BoundMethodBaseEEEZNS1_6SignalIJjEE10disconnectINS1_15DelayedControlsEvEEvPT_MSB_FT0_jEEUlS5_E_E10_M_managerERSt9_Any_dataRKSI_St18_Manager_operation W
_ZNSt17_Function_handlerIFbRSt14_List_iteratorIPN9libcamera15BoundMethodBaseEEEZNS1_6SignalIJjEE10disconnectINS1_15DelayedControlsEvEEvPT_MSB_FT0_jEEUlS5_E_E9_M_invokeERKSt9_Any_dataS5_ W
_ZNSt17_Function_handlerIFbRSt14_List_iteratorIPN9libcamera15BoundMethodBaseEEEZNS1_6SignalIJjjEE10disconnectEvEUlS5_E_E10_M_managerERSt9_Any_dataRKSB_St18_Manager_operation W
_ZNSt17_Function_handlerIFbRSt14_List_iteratorIPN9libcamera15BoundMethodBaseEEEZNS1_6SignalIJjjEE10disconnectEvEUlS5_E_E9_M_invokeERKSt9_Any_dataS5_ W
_ZNSt17_Function_handlerIFbRSt14_List_iteratorIPN9libcamera15BoundMethodBaseEEEZNS1_6SignalIJjRKNS1_11ControlListEEE10disconnectEvEUlS5_E_E10_M_managerERSt9_Any_dataRKSE_St18_Manager_operation W
_ZNSt17_Function_handlerIFbRSt14_List_iteratorIPN9libcamera15BoundMethodBaseEEEZNS1_6SignalIJjRKNS1_11ControlListEEE10disconnectEvEUlS5_E_E9_M_invokeERKSt9_Any_dataS5_ W
_ZNSt17_Function_handlerIFbRSt14_List_iteratorIPN9libcamera15BoundMethodBaseEEEZNS1_6SignalIJNS1_7Process10ExitStatusEiEE10disconnectEvEUlS5_E_E10_M_managerERSt9_Any_dataRKSD_St18_Manager_operation W
_ZNSt17_Function_handlerIFbRSt14_List_iteratorIPN9libcamera15BoundMethodBaseEEEZNS1_6SignalIJNS1_7Process10ExitStatusEiEE10disconnectEvEUlS5_E_E9_M_invokeERKSt9_Any_dataS5_ W
_ZNSt17_Function_handlerIFbRSt14_List_iteratorIPN9libcamera15BoundMethodBaseEEEZNS1_6SignalIJPNS1_11FrameBufferEEE10disconnectEvEUlS5_E_E10_M_managerERSt9_Any_dataRKSD_St18_Manager_operation W
_ZNSt17_Function_handlerIFbRSt14_List_iteratorIPN9libcamera15BoundMethodBaseEEEZNS1_6SignalIJPNS1_11FrameBufferEEE10disconnectEvEUlS5_E_E9_M_invokeERKSt9_Any_dataS5_ W
_ZNSt17_Function_handlerIFbRSt14_List_iteratorIPN9libcamera15BoundMethodBaseEEEZNS1_6SignalIJPNS1_11FrameBufferEEE10disconnectINS1_16SimpleCameraDataEvEEvPT_MSD_FT0_S9_EEUlS5_E_E10_M_managerERSt9_Any_dataRKSK_St18_Manager_operation W
_ZNSt17_Function_handlerIFbRSt14_List_iteratorIPN9libcamera15BoundMethodBaseEEEZNS1_6SignalIJPNS1_11FrameBufferEEE10disconnectINS1_16SimpleCameraDataEvEEvPT_MSD_FT0_S9_EEUlS5_E_E9_M_invokeERKSt9_Any_dataS5_ W
_ZNSt17_Function_handlerIFbRSt14_List_iteratorIPN9libcamera15BoundMethodBaseEEEZNS1_6SignalIJPNS1_7RequestEEE10disconnectEvEUlS5_E_E10_M_managerERSt9_Any_dataRKSD_St18_Manager_operation W
_ZNSt17_Function_handlerIFbRSt14_List_iteratorIPN9libcamera15BoundMethodBaseEEEZNS1_6SignalIJPNS1_7RequestEEE10disconnectEvEUlS5_E_E9_M_invokeERKSt9_Any_dataS5_ W
_ZNSt17_Function_handlerIFbRSt14_List_iteratorIPN9libcamera15BoundMethodBaseEEEZNS1_6SignalIJPNS1_7RequestEPNS1_11FrameBufferEEE10disconnectEvEUlS5_E_E10_M_managerERSt9_Any_dataRKSF_St18_Manager_operation W
_ZNSt17_Function_handlerIFbRSt14_List_iteratorIPN9libcamera15BoundMethodBaseEEEZNS1_6SignalIJPNS1_7RequestEPNS1_11FrameBufferEEE10disconnectEvEUlS5_E_E9_M_invokeERKSt9_Any_dataS5_ W
_ZNSt17_Function_handlerIFbRSt14_List_iteratorIPN9libcamera15BoundMethodBaseEEEZNS1_6SignalIJRKNS1_10IPCMessageEEE10disconnectEvEUlS5_E_E10_M_managerERSt9_Any_dataRKSE_St18_Manager_operation W
_ZNSt17_Function_handlerIFbRSt14_List_iteratorIPN9libcamera15BoundMethodBaseEEEZNS1_6SignalIJRKNS1_10IPCMessageEEE10disconnectEvEUlS5_E_E9_M_invokeERKSt9_Any_dataS5_ W
_ZNSt17_Function_handlerIFbRSt14_List_iteratorIPN9libcamera15BoundMethodBaseEEEZNS1_6SignalIJRKNS1_11ControlListEEE10disconnectEvEUlS5_E_E10_M_managerERSt9_Any_dataRKSE_St18_Manager_operation W
_ZNSt17_Function_handlerIFbRSt14_List_iteratorIPN9libcamera15BoundMethodBaseEEEZNS1_6SignalIJRKNS1_11ControlListEEE10disconnectEvEUlS5_E_E9_M_invokeERKSt9_Any_dataS5_ W
_ZNSt17_Function_handlerIFbRSt14_List_iteratorIPN9libcamera15BoundMethodBaseEEEZNS1_6SignalIJRKNS1_11ControlListEjEE10disconnectEvEUlS5_E_E10_M_managerERSt9_Any_dataRKSE_St18_Manager_operation W
_ZNSt17_Function_handlerIFbRSt14_List_iteratorIPN9libcamera15BoundMethodBaseEEEZNS1_6SignalIJRKNS1_11ControlListEjEE10disconnectEvEUlS5_E_E9_M_invokeERKSt9_Any_dataS5_ W
_ZNSt17_Function_handlerIFbRSt14_List_iteratorIPN9libcamera15BoundMethodBaseEEEZNS1_6SignalIJRKNS1_3ipa3RPi9BufferIdsEbEE10disconnectEvEUlS5_E_E10_M_managerERSt9_Any_dataRKSG_St18_Manager_operation W
_ZNSt17_Function_handlerIFbRSt14_List_iteratorIPN9libcamera15BoundMethodBaseEEEZNS1_6SignalIJRKNS1_3ipa3RPi9BufferIdsEbEE10disconnectEvEUlS5_E_E9_M_invokeERKSt9_Any_dataS5_ W
_ZNSt17_Function_handlerIFbRSt14_List_iteratorIPN9libcamera15BoundMethodBaseEEEZNS1_6SignalIJRKNS1_3ipa3RPi9BufferIdsEEE10disconnectEvEUlS5_E_E10_M_managerERSt9_Any_dataRKSG_St18_Manager_operation W
_ZNSt17_Function_handlerIFbRSt14_List_iteratorIPN9libcamera15BoundMethodBaseEEEZNS1_6SignalIJRKNS1_3ipa3RPi9BufferIdsEEE10disconnectEvEUlS5_E_E9_M_invokeERKSt9_Any_dataS5_ W
_ZNSt17_Function_handlerIFbRSt14_List_iteratorIPN9libcamera15BoundMethodBaseEEEZNS1_6SignalIJSt10shared_ptrINS1_6CameraEEEE10disconnectEvEUlS5_E_E10_M_managerERSt9_Any_dataRKSE_St18_Manager_operation W
_ZNSt17_Function_handlerIFbRSt14_List_iteratorIPN9libcamera15BoundMethodBaseEEEZNS1_6SignalIJSt10shared_ptrINS1_6CameraEEEE10disconnectEvEUlS5_E_E9_M_invokeERKSt9_Any_dataS5_ W
_ZNSt18bad_variant_accessD0Ev W
_ZNSt18bad_variant_accessD1Ev W
_ZNSt18bad_variant_accessD2Ev W
_ZNSt19bad_optional_accessD0Ev W
_ZNSt19bad_optional_accessD1Ev W
_ZNSt19bad_optional_accessD2Ev W
_ZNSt19_Sp_counted_deleterIPN9libcamera11MediaDeviceESt14default_deleteIS1_ESaIvELN9__gnu_cxx12_Lock_policyE2EE10_M_destroyEv W
_ZNSt19_Sp_counted_deleterIPN9libcamera11MediaDeviceESt14default_deleteIS1_ESaIvELN9__gnu_cxx12_Lock_policyE2EE10_M_disposeEv W
_ZNSt19_Sp_counted_deleterIPN9libcamera11MediaDeviceESt14default_deleteIS1_ESaIvELN9__gnu_cxx12_Lock_policyE2EE14_M_get_deleterERKSt9type_info W
_ZNSt19_Sp_counted_deleterIPN9libcamera11MediaDeviceESt14default_deleteIS1_ESaIvELN9__gnu_cxx12_Lock_policyE2EED0Ev W
_ZNSt19_Sp_counted_deleterIPN9libcamera11MediaDeviceESt14default_deleteIS1_ESaIvELN9__gnu_cxx12_Lock_policyE2EED1Ev W
_ZNSt19_Sp_counted_deleterIPN9libcamera11MediaDeviceESt14default_deleteIS1_ESaIvELN9__gnu_cxx12_Lock_policyE2EED2Ev W
_ZNSt19_Sp_counted_deleterIPN9libcamera15PipelineHandlerESt14default_deleteIS1_ESaIvELN9__gnu_cxx12_Lock_policyE2EE10_M_destroyEv W
_ZNSt19_Sp_counted_deleterIPN9libcamera15PipelineHandlerESt14default_deleteIS1_ESaIvELN9__gnu_cxx12_Lock_policyE2EE10_M_disposeEv W
_ZNSt19_Sp_counted_deleterIPN9libcamera15PipelineHandlerESt14default_deleteIS1_ESaIvELN9__gnu_cxx12_Lock_policyE2EE14_M_get_deleterERKSt9type_info W
_ZNSt19_Sp_counted_deleterIPN9libcamera15PipelineHandlerESt14default_deleteIS1_ESaIvELN9__gnu_cxx12_Lock_policyE2EED0Ev W
_ZNSt19_Sp_counted_deleterIPN9libcamera15PipelineHandlerESt14default_deleteIS1_ESaIvELN9__gnu_cxx12_Lock_policyE2EED1Ev W
_ZNSt19_Sp_counted_deleterIPN9libcamera15PipelineHandlerESt14default_deleteIS1_ESaIvELN9__gnu_cxx12_Lock_policyE2EED2Ev W
_ZNSt23_Sp_counted_ptr_inplaceIN9libcamera15BoundMethodPackIbJPNS0_6CameraEEEESaIvELN9__gnu_cxx12_Lock_policyE2EE10_M_destroyEv W
_ZNSt23_Sp_counted_ptr_inplaceIN9libcamera15BoundMethodPackIbJPNS0_6CameraEEEESaIvELN9__gnu_cxx12_Lock_policyE2EE10_M_disposeEv W
_ZNSt23_Sp_counted_ptr_inplaceIN9libcamera15BoundMethodPackIbJPNS0_6CameraEEEESaIvELN9__gnu_cxx12_Lock_policyE2EE14_M_get_deleterERKSt9type_info W
_ZNSt23_Sp_counted_ptr_inplaceIN9libcamera15BoundMethodPackIbJPNS0_6CameraEEEESaIvELN9__gnu_cxx12_Lock_policyE2EED0Ev W
_ZNSt23_Sp_counted_ptr_inplaceIN9libcamera15BoundMethodPackIbJPNS0_6CameraEEEESaIvELN9__gnu_cxx12_Lock_policyE2EED1Ev W
_ZNSt23_Sp_counted_ptr_inplaceIN9libcamera15BoundMethodPackIbJPNS0_6CameraEEEESaIvELN9__gnu_cxx12_Lock_policyE2EED2Ev W
_ZNSt23_Sp_counted_ptr_inplaceIN9libcamera15BoundMethodPackIiJEEESaIvELN9__gnu_cxx12_Lock_policyE2EE10_M_destroyEv W
_ZNSt23_Sp_counted_ptr_inplaceIN9libcamera15BoundMethodPackIiJEEESaIvELN9__gnu_cxx12_Lock_policyE2EE10_M_disposeEv W
_ZNSt23_Sp_counted_ptr_inplaceIN9libcamera15BoundMethodPackIiJEEESaIvELN9__gnu_cxx12_Lock_policyE2EE14_M_get_deleterERKSt9type_info W
_ZNSt23_Sp_counted_ptr_inplaceIN9libcamera15BoundMethodPackIiJEEESaIvELN9__gnu_cxx12_Lock_policyE2EED0Ev W
_ZNSt23_Sp_counted_ptr_inplaceIN9libcamera15BoundMethodPackIiJEEESaIvELN9__gnu_cxx12_Lock_policyE2EED1Ev W
_ZNSt23_Sp_counted_ptr_inplaceIN9libcamera15BoundMethodPackIiJEEESaIvELN9__gnu_cxx12_Lock_policyE2EED2Ev W
_ZNSt23_Sp_counted_ptr_inplaceIN9libcamera15BoundMethodPackIiJPNS0_6CameraEPKNS0_11ControlListEEEESaIvELN9__gnu_cxx12_Lock_policyE2EE10_M_destroyEv W
_ZNSt23_Sp_counted_ptr_inplaceIN9libcamera15BoundMethodPackIiJPNS0_6CameraEPKNS0_11ControlListEEEESaIvELN9__gnu_cxx12_Lock_policyE2EE10_M_disposeEv W
_ZNSt23_Sp_counted_ptr_inplaceIN9libcamera15BoundMethodPackIiJPNS0_6CameraEPKNS0_11ControlListEEEESaIvELN9__gnu_cxx12_Lock_policyE2EE14_M_get_deleterERKSt9type_info W
_ZNSt23_Sp_counted_ptr_inplaceIN9libcamera15BoundMethodPackIiJPNS0_6CameraEPKNS0_11ControlListEEEESaIvELN9__gnu_cxx12_Lock_policyE2EED0Ev W
_ZNSt23_Sp_counted_ptr_inplaceIN9libcamera15BoundMethodPackIiJPNS0_6CameraEPKNS0_11ControlListEEEESaIvELN9__gnu_cxx12_Lock_policyE2EED1Ev W
_ZNSt23_Sp_counted_ptr_inplaceIN9libcamera15BoundMethodPackIiJPNS0_6CameraEPKNS0_11ControlListEEEESaIvELN9__gnu_cxx12_Lock_policyE2EED2Ev W
_ZNSt23_Sp_counted_ptr_inplaceIN9libcamera15BoundMethodPackIiJPNS0_6CameraEPNS0_19CameraConfigurationEEEESaIvELN9__gnu_cxx12_Lock_policyE2EE10_M_destroyEv W
_ZNSt23_Sp_counted_ptr_inplaceIN9libcamera15BoundMethodPackIiJPNS0_6CameraEPNS0_19CameraConfigurationEEEESaIvELN9__gnu_cxx12_Lock_policyE2EE10_M_disposeEv W
_ZNSt23_Sp_counted_ptr_inplaceIN9libcamera15BoundMethodPackIiJPNS0_6CameraEPNS0_19CameraConfigurationEEEESaIvELN9__gnu_cxx12_Lock_policyE2EE14_M_get_deleterERKSt9type_info W
_ZNSt23_Sp_counted_ptr_inplaceIN9libcamera15BoundMethodPackIiJPNS0_6CameraEPNS0_19CameraConfigurationEEEESaIvELN9__gnu_cxx12_Lock_policyE2EED0Ev W
_ZNSt23_Sp_counted_ptr_inplaceIN9libcamera15BoundMethodPackIiJPNS0_6CameraEPNS0_19CameraConfigurationEEEESaIvELN9__gnu_cxx12_Lock_policyE2EED1Ev W
_ZNSt23_Sp_counted_ptr_inplaceIN9libcamera15BoundMethodPackIiJPNS0_6CameraEPNS0_19CameraConfigurationEEEESaIvELN9__gnu_cxx12_Lock_policyE2EED2Ev W
_ZNSt23_Sp_counted_ptr_inplaceIN9libcamera15BoundMethodPackIiJPNS0_6CameraEPNS0_6StreamEPSt6vectorISt10unique_ptrINS0_11FrameBufferESt14default_deleteIS8_EESaISB_EEEEESaIvELN9__gnu_cxx12_Lock_policyE2EE10_M_destroyEv W
_ZNSt23_Sp_counted_ptr_inplaceIN9libcamera15BoundMethodPackIiJPNS0_6CameraEPNS0_6StreamEPSt6vectorISt10unique_ptrINS0_11FrameBufferESt14default_deleteIS8_EESaISB_EEEEESaIvELN9__gnu_cxx12_Lock_policyE2EE10_M_disposeEv W
_ZNSt23_Sp_counted_ptr_inplaceIN9libcamera15BoundMethodPackIiJPNS0_6CameraEPNS0_6StreamEPSt6vectorISt10unique_ptrINS0_11FrameBufferESt14default_deleteIS8_EESaISB_EEEEESaIvELN9__gnu_cxx12_Lock_policyE2EE14_M_get_deleterERKSt9type_info W
_ZNSt23_Sp_counted_ptr_inplaceIN9libcamera15BoundMethodPackIiJPNS0_6CameraEPNS0_6StreamEPSt6vectorISt10unique_ptrINS0_11FrameBufferESt14default_deleteIS8_EESaISB_EEEEESaIvELN9__gnu_cxx12_Lock_policyE2EED0Ev W
_ZNSt23_Sp_counted_ptr_inplaceIN9libcamera15BoundMethodPackIiJPNS0_6CameraEPNS0_6StreamEPSt6vectorISt10unique_ptrINS0_11FrameBufferESt14default_deleteIS8_EESaISB_EEEEESaIvELN9__gnu_cxx12_Lock_policyE2EED1Ev W
_ZNSt23_Sp_counted_ptr_inplaceIN9libcamera15BoundMethodPackIiJPNS0_6CameraEPNS0_6StreamEPSt6vectorISt10unique_ptrINS0_11FrameBufferESt14default_deleteIS8_EESaISB_EEEEESaIvELN9__gnu_cxx12_Lock_policyE2EED2Ev W
_ZNSt23_Sp_counted_ptr_inplaceIN9libcamera15BoundMethodPackIvJEEESaIvELN9__gnu_cxx12_Lock_policyE2EE10_M_destroyEv W
_ZNSt23_Sp_counted_ptr_inplaceIN9libcamera15BoundMethodPackIvJEEESaIvELN9__gnu_cxx12_Lock_policyE2EE10_M_disposeEv W
_ZNSt23_Sp_counted_ptr_inplaceIN9libcamera15BoundMethodPackIvJEEESaIvELN9__gnu_cxx12_Lock_policyE2EE14_M_get_deleterERKSt9type_info W
_ZNSt23_Sp_counted_ptr_inplaceIN9libcamera15BoundMethodPackIvJEEESaIvELN9__gnu_cxx12_Lock_policyE2EED0Ev W
_ZNSt23_Sp_counted_ptr_inplaceIN9libcamera15BoundMethodPackIvJEEESaIvELN9__gnu_cxx12_Lock_policyE2EED1Ev W
_ZNSt23_Sp_counted_ptr_inplaceIN9libcamera15BoundMethodPackIvJEEESaIvELN9__gnu_cxx12_Lock_policyE2EED2Ev W
_ZNSt23_Sp_counted_ptr_inplaceIN9libcamera15BoundMethodPackIvJjEEESaIvELN9__gnu_cxx12_Lock_policyE2EE10_M_destroyEv W
_ZNSt23_Sp_counted_ptr_inplaceIN9libcamera15BoundMethodPackIvJjEEESaIvELN9__gnu_cxx12_Lock_policyE2EE10_M_disposeEv W
_ZNSt23_Sp_counted_ptr_inplaceIN9libcamera15BoundMethodPackIvJjEEESaIvELN9__gnu_cxx12_Lock_policyE2EE14_M_get_deleterERKSt9type_info W
_ZNSt23_Sp_counted_ptr_inplaceIN9libcamera15BoundMethodPackIvJjEEESaIvELN9__gnu_cxx12_Lock_policyE2EED0Ev W
_ZNSt23_Sp_counted_ptr_inplaceIN9libcamera15BoundMethodPackIvJjEEESaIvELN9__gnu_cxx12_Lock_policyE2EED1Ev W
_ZNSt23_Sp_counted_ptr_inplaceIN9libcamera15BoundMethodPackIvJjEEESaIvELN9__gnu_cxx12_Lock_policyE2EED2Ev W
_ZNSt23_Sp_counted_ptr_inplaceIN9libcamera15BoundMethodPackIvJjjEEESaIvELN9__gnu_cxx12_Lock_policyE2EE10_M_destroyEv W
_ZNSt23_Sp_counted_ptr_inplaceIN9libcamera15BoundMethodPackIvJjjEEESaIvELN9__gnu_cxx12_Lock_policyE2EE10_M_disposeEv W
_ZNSt23_Sp_counted_ptr_inplaceIN9libcamera15BoundMethodPackIvJjjEEESaIvELN9__gnu_cxx12_Lock_policyE2EE14_M_get_deleterERKSt9type_info W
_ZNSt23_Sp_counted_ptr_inplaceIN9libcamera15BoundMethodPackIvJjjEEESaIvELN9__gnu_cxx12_Lock_policyE2EED0Ev W
_ZNSt23_Sp_counted_ptr_inplaceIN9libcamera15BoundMethodPackIvJjjEEESaIvELN9__gnu_cxx12_Lock_policyE2EED1Ev W
_ZNSt23_Sp_counted_ptr_inplaceIN9libcamera15BoundMethodPackIvJjjEEESaIvELN9__gnu_cxx12_Lock_policyE2EED2Ev W
_ZNSt23_Sp_counted_ptr_inplaceIN9libcamera15BoundMethodPackIvJjjRKNS0_11ControlListEEEESaIvELN9__gnu_cxx12_Lock_policyE2EE10_M_destroyEv W
_ZNSt23_Sp_counted_ptr_inplaceIN9libcamera15BoundMethodPackIvJjjRKNS0_11ControlListEEEESaIvELN9__gnu_cxx12_Lock_policyE2EE10_M_disposeEv W
_ZNSt23_Sp_counted_ptr_inplaceIN9libcamera15BoundMethodPackIvJjjRKNS0_11ControlListEEEESaIvELN9__gnu_cxx12_Lock_policyE2EE14_M_get_deleterERKSt9type_info W
_ZNSt23_Sp_counted_ptr_inplaceIN9libcamera15BoundMethodPackIvJjjRKNS0_11ControlListEEEESaIvELN9__gnu_cxx12_Lock_policyE2EED0Ev W
_ZNSt23_Sp_counted_ptr_inplaceIN9libcamera15BoundMethodPackIvJjjRKNS0_11ControlListEEEESaIvELN9__gnu_cxx12_Lock_policyE2EED1Ev W
_ZNSt23_Sp_counted_ptr_inplaceIN9libcamera15BoundMethodPackIvJjjRKNS0_11ControlListEEEESaIvELN9__gnu_cxx12_Lock_policyE2EED2Ev W
_ZNSt23_Sp_counted_ptr_inplaceIN9libcamera15BoundMethodPackIvJjPNS0_11FrameBufferES3_NS0_13DebayerParamsEEEESaIvELN9__gnu_cxx12_Lock_policyE2EE10_M_destroyEv W
_ZNSt23_Sp_counted_ptr_inplaceIN9libcamera15BoundMethodPackIvJjPNS0_11FrameBufferES3_NS0_13DebayerParamsEEEESaIvELN9__gnu_cxx12_Lock_policyE2EE10_M_disposeEv W
_ZNSt23_Sp_counted_ptr_inplaceIN9libcamera15BoundMethodPackIvJjPNS0_11FrameBufferES3_NS0_13DebayerParamsEEEESaIvELN9__gnu_cxx12_Lock_policyE2EE14_M_get_deleterERKSt9type_info W
_ZNSt23_Sp_counted_ptr_inplaceIN9libcamera15BoundMethodPackIvJjPNS0_11FrameBufferES3_NS0_13DebayerParamsEEEESaIvELN9__gnu_cxx12_Lock_policyE2EED0Ev W
_ZNSt23_Sp_counted_ptr_inplaceIN9libcamera15BoundMethodPackIvJjPNS0_11FrameBufferES3_NS0_13DebayerParamsEEEESaIvELN9__gnu_cxx12_Lock_policyE2EED1Ev W
_ZNSt23_Sp_counted_ptr_inplaceIN9libcamera15BoundMethodPackIvJjPNS0_11FrameBufferES3_NS0_13DebayerParamsEEEESaIvELN9__gnu_cxx12_Lock_policyE2EED2Ev W
_ZNSt23_Sp_counted_ptr_inplaceIN9libcamera15BoundMethodPackIvJjRKNS0_11ControlListEEEESaIvELN9__gnu_cxx12_Lock_policyE2EE10_M_destroyEv W
_ZNSt23_Sp_counted_ptr_inplaceIN9libcamera15BoundMethodPackIvJjRKNS0_11ControlListEEEESaIvELN9__gnu_cxx12_Lock_policyE2EE10_M_disposeEv W
_ZNSt23_Sp_counted_ptr_inplaceIN9libcamera15BoundMethodPackIvJjRKNS0_11ControlListEEEESaIvELN9__gnu_cxx12_Lock_policyE2EE14_M_get_deleterERKSt9type_info W
_ZNSt23_Sp_counted_ptr_inplaceIN9libcamera15BoundMethodPackIvJjRKNS0_11ControlListEEEESaIvELN9__gnu_cxx12_Lock_policyE2EED0Ev W
_ZNSt23_Sp_counted_ptr_inplaceIN9libcamera15BoundMethodPackIvJjRKNS0_11ControlListEEEESaIvELN9__gnu_cxx12_Lock_policyE2EED1Ev W
_ZNSt23_Sp_counted_ptr_inplaceIN9libcamera15BoundMethodPackIvJjRKNS0_11ControlListEEEESaIvELN9__gnu_cxx12_Lock_policyE2EED2Ev W
_ZNSt23_Sp_counted_ptr_inplaceIN9libcamera15BoundMethodPackIvJPNS0_11FrameBufferEEEESaIvELN9__gnu_cxx12_Lock_policyE2EE10_M_destroyEv W
_ZNSt23_Sp_counted_ptr_inplaceIN9libcamera15BoundMethodPackIvJPNS0_11FrameBufferEEEESaIvELN9__gnu_cxx12_Lock_policyE2EE10_M_disposeEv W
_ZNSt23_Sp_counted_ptr_inplaceIN9libcamera15BoundMethodPackIvJPNS0_11FrameBufferEEEESaIvELN9__gnu_cxx12_Lock_policyE2EE14_M_get_deleterERKSt9type_info W
_ZNSt23_Sp_counted_ptr_inplaceIN9libcamera15BoundMethodPackIvJPNS0_11FrameBufferEEEESaIvELN9__gnu_cxx12_Lock_policyE2EED0Ev W
_ZNSt23_Sp_counted_ptr_inplaceIN9libcamera15BoundMethodPackIvJPNS0_11FrameBufferEEEESaIvELN9__gnu_cxx12_Lock_policyE2EED1Ev W
_ZNSt23_Sp_counted_ptr_inplaceIN9libcamera15BoundMethodPackIvJPNS0_11FrameBufferEEEESaIvELN9__gnu_cxx12_Lock_policyE2EED2Ev W
_ZNSt23_Sp_counted_ptr_inplaceIN9libcamera15BoundMethodPackIvJPNS0_6CameraEEEESaIvELN9__gnu_cxx12_Lock_policyE2EE10_M_destroyEv W
_ZNSt23_Sp_counted_ptr_inplaceIN9libcamera15BoundMethodPackIvJPNS0_6CameraEEEESaIvELN9__gnu_cxx12_Lock_policyE2EE10_M_disposeEv W
_ZNSt23_Sp_counted_ptr_inplaceIN9libcamera15BoundMethodPackIvJPNS0_6CameraEEEESaIvELN9__gnu_cxx12_Lock_policyE2EE14_M_get_deleterERKSt9type_info W
_ZNSt23_Sp_counted_ptr_inplaceIN9libcamera15BoundMethodPackIvJPNS0_6CameraEEEESaIvELN9__gnu_cxx12_Lock_policyE2EED0Ev W
_ZNSt23_Sp_counted_ptr_inplaceIN9libcamera15BoundMethodPackIvJPNS0_6CameraEEEESaIvELN9__gnu_cxx12_Lock_policyE2EED1Ev W
_ZNSt23_Sp_counted_ptr_inplaceIN9libcamera15BoundMethodPackIvJPNS0_6CameraEEEESaIvELN9__gnu_cxx12_Lock_policyE2EED2Ev W
_ZNSt23_Sp_counted_ptr_inplaceIN9libcamera15BoundMethodPackIvJPNS0_7RequestEEEESaIvELN9__gnu_cxx12_Lock_policyE2EE10_M_destroyEv W
_ZNSt23_Sp_counted_ptr_inplaceIN9libcamera15BoundMethodPackIvJPNS0_7RequestEEEESaIvELN9__gnu_cxx12_Lock_policyE2EE10_M_disposeEv W
_ZNSt23_Sp_counted_ptr_inplaceIN9libcamera15BoundMethodPackIvJPNS0_7RequestEEEESaIvELN9__gnu_cxx12_Lock_policyE2EE14_M_get_deleterERKSt9type_info W
_ZNSt23_Sp_counted_ptr_inplaceIN9libcamera15BoundMethodPackIvJPNS0_7RequestEEEESaIvELN9__gnu_cxx12_Lock_policyE2EED0Ev W
_ZNSt23_Sp_counted_ptr_inplaceIN9libcamera15BoundMethodPackIvJPNS0_7RequestEEEESaIvELN9__gnu_cxx12_Lock_policyE2EED1Ev W
_ZNSt23_Sp_counted_ptr_inplaceIN9libcamera15BoundMethodPackIvJPNS0_7RequestEEEESaIvELN9__gnu_cxx12_Lock_policyE2EED2Ev W
_ZNSt23_Sp_counted_ptr_inplaceIN9libcamera15BoundMethodPackIvJRKNS0_10IPCMessageEEEESaIvELN9__gnu_cxx12_Lock_policyE2EE10_M_destroyEv W
_ZNSt23_Sp_counted_ptr_inplaceIN9libcamera15BoundMethodPackIvJRKNS0_10IPCMessageEEEESaIvELN9__gnu_cxx12_Lock_policyE2EE10_M_disposeEv W
_ZNSt23_Sp_counted_ptr_inplaceIN9libcamera15BoundMethodPackIvJRKNS0_10IPCMessageEEEESaIvELN9__gnu_cxx12_Lock_policyE2EE14_M_get_deleterERKSt9type_info W
_ZNSt23_Sp_counted_ptr_inplaceIN9libcamera15BoundMethodPackIvJRKNS0_10IPCMessageEEEESaIvELN9__gnu_cxx12_Lock_policyE2EED0Ev W
_ZNSt23_Sp_counted_ptr_inplaceIN9libcamera15BoundMethodPackIvJRKNS0_10IPCMessageEEEESaIvELN9__gnu_cxx12_Lock_policyE2EED1Ev W
_ZNSt23_Sp_counted_ptr_inplaceIN9libcamera15BoundMethodPackIvJRKNS0_10IPCMessageEEEESaIvELN9__gnu_cxx12_Lock_policyE2EED2Ev W
_ZNSt23_Sp_counted_ptr_inplaceIN9libcamera15BoundMethodPackIvJRKNS0_11ControlListEEEESaIvELN9__gnu_cxx12_Lock_policyE2EE10_M_destroyEv W
_ZNSt23_Sp_counted_ptr_inplaceIN9libcamera15BoundMethodPackIvJRKNS0_11ControlListEEEESaIvELN9__gnu_cxx12_Lock_policyE2EE10_M_disposeEv W
_ZNSt23_Sp_counted_ptr_inplaceIN9libcamera15BoundMethodPackIvJRKNS0_11ControlListEEEESaIvELN9__gnu_cxx12_Lock_policyE2EE14_M_get_deleterERKSt9type_info W
_ZNSt23_Sp_counted_ptr_inplaceIN9libcamera15BoundMethodPackIvJRKNS0_11ControlListEEEESaIvELN9__gnu_cxx12_Lock_policyE2EED0Ev W
_ZNSt23_Sp_counted_ptr_inplaceIN9libcamera15BoundMethodPackIvJRKNS0_11ControlListEEEESaIvELN9__gnu_cxx12_Lock_policyE2EED1Ev W
_ZNSt23_Sp_counted_ptr_inplaceIN9libcamera15BoundMethodPackIvJRKNS0_11ControlListEEEESaIvELN9__gnu_cxx12_Lock_policyE2EED2Ev W
_ZNSt23_Sp_counted_ptr_inplaceIN9libcamera15BoundMethodPackIvJRKNS0_11ControlListEjEEESaIvELN9__gnu_cxx12_Lock_policyE2EE10_M_destroyEv W
_ZNSt23_Sp_counted_ptr_inplaceIN9libcamera15BoundMethodPackIvJRKNS0_11ControlListEjEEESaIvELN9__gnu_cxx12_Lock_policyE2EE10_M_disposeEv W
_ZNSt23_Sp_counted_ptr_inplaceIN9libcamera15BoundMethodPackIvJRKNS0_11ControlListEjEEESaIvELN9__gnu_cxx12_Lock_policyE2EE14_M_get_deleterERKSt9type_info W
_ZNSt23_Sp_counted_ptr_inplaceIN9libcamera15BoundMethodPackIvJRKNS0_11ControlListEjEEESaIvELN9__gnu_cxx12_Lock_policyE2EED0Ev W
_ZNSt23_Sp_counted_ptr_inplaceIN9libcamera15BoundMethodPackIvJRKNS0_11ControlListEjEEESaIvELN9__gnu_cxx12_Lock_policyE2EED1Ev W
_ZNSt23_Sp_counted_ptr_inplaceIN9libcamera15BoundMethodPackIvJRKNS0_11ControlListEjEEESaIvELN9__gnu_cxx12_Lock_policyE2EED2Ev W
_ZNSt23_Sp_counted_ptr_inplaceIN9libcamera15BoundMethodPackIvJRKNS0_11ControlListEPNS0_3ipa3RPi11StartResultEEEESaIvELN9__gnu_cxx12_Lock_policyE2EE10_M_destroyEv W
_ZNSt23_Sp_counted_ptr_inplaceIN9libcamera15BoundMethodPackIvJRKNS0_11ControlListEPNS0_3ipa3RPi11StartResultEEEESaIvELN9__gnu_cxx12_Lock_policyE2EE10_M_disposeEv W
_ZNSt23_Sp_counted_ptr_inplaceIN9libcamera15BoundMethodPackIvJRKNS0_11ControlListEPNS0_3ipa3RPi11StartResultEEEESaIvELN9__gnu_cxx12_Lock_policyE2EE14_M_get_deleterERKSt9type_info W
_ZNSt23_Sp_counted_ptr_inplaceIN9libcamera15BoundMethodPackIvJRKNS0_11ControlListEPNS0_3ipa3RPi11StartResultEEEESaIvELN9__gnu_cxx12_Lock_policyE2EED0Ev W
_ZNSt23_Sp_counted_ptr_inplaceIN9libcamera15BoundMethodPackIvJRKNS0_11ControlListEPNS0_3ipa3RPi11StartResultEEEESaIvELN9__gnu_cxx12_Lock_policyE2EED1Ev W
_ZNSt23_Sp_counted_ptr_inplaceIN9libcamera15BoundMethodPackIvJRKNS0_11ControlListEPNS0_3ipa3RPi11StartResultEEEESaIvELN9__gnu_cxx12_Lock_policyE2EED2Ev W
_ZNSt23_Sp_counted_ptr_inplaceIN9libcamera15BoundMethodPackIvJRKNS0_3ipa3RPi13PrepareParamsEEEESaIvELN9__gnu_cxx12_Lock_policyE2EE10_M_destroyEv W
_ZNSt23_Sp_counted_ptr_inplaceIN9libcamera15BoundMethodPackIvJRKNS0_3ipa3RPi13PrepareParamsEEEESaIvELN9__gnu_cxx12_Lock_policyE2EE10_M_disposeEv W
_ZNSt23_Sp_counted_ptr_inplaceIN9libcamera15BoundMethodPackIvJRKNS0_3ipa3RPi13PrepareParamsEEEESaIvELN9__gnu_cxx12_Lock_policyE2EE14_M_get_deleterERKSt9type_info W
_ZNSt23_Sp_counted_ptr_inplaceIN9libcamera15BoundMethodPackIvJRKNS0_3ipa3RPi13PrepareParamsEEEESaIvELN9__gnu_cxx12_Lock_policyE2EED0Ev W
_ZNSt23_Sp_counted_ptr_inplaceIN9libcamera15BoundMethodPackIvJRKNS0_3ipa3RPi13PrepareParamsEEEESaIvELN9__gnu_cxx12_Lock_policyE2EED1Ev W
_ZNSt23_Sp_counted_ptr_inplaceIN9libcamera15BoundMethodPackIvJRKNS0_3ipa3RPi13PrepareParamsEEEESaIvELN9__gnu_cxx12_Lock_policyE2EED2Ev W
_ZNSt23_Sp_counted_ptr_inplaceIN9libcamera15BoundMethodPackIvJRKNS0_3ipa3RPi13ProcessParamsEEEESaIvELN9__gnu_cxx12_Lock_policyE2EE10_M_destroyEv W
_ZNSt23_Sp_counted_ptr_inplaceIN9libcamera15BoundMethodPackIvJRKNS0_3ipa3RPi13ProcessParamsEEEESaIvELN9__gnu_cxx12_Lock_policyE2EE10_M_disposeEv W
_ZNSt23_Sp_counted_ptr_inplaceIN9libcamera15BoundMethodPackIvJRKNS0_3ipa3RPi13ProcessParamsEEEESaIvELN9__gnu_cxx12_Lock_policyE2EE14_M_get_deleterERKSt9type_info W
_ZNSt23_Sp_counted_ptr_inplaceIN9libcamera15BoundMethodPackIvJRKNS0_3ipa3RPi13ProcessParamsEEEESaIvELN9__gnu_cxx12_Lock_policyE2EED0Ev W
_ZNSt23_Sp_counted_ptr_inplaceIN9libcamera15BoundMethodPackIvJRKNS0_3ipa3RPi13ProcessParamsEEEESaIvELN9__gnu_cxx12_Lock_policyE2EED1Ev W
_ZNSt23_Sp_counted_ptr_inplaceIN9libcamera15BoundMethodPackIvJRKNS0_3ipa3RPi13ProcessParamsEEEESaIvELN9__gnu_cxx12_Lock_policyE2EED2Ev W
_ZNSt23_Sp_counted_ptr_inplaceIN9libcamera15BoundMethodPackIvJRKNS0_3ipa3RPi9BufferIdsEbEEESaIvELN9__gnu_cxx12_Lock_policyE2EE10_M_destroyEv W
_ZNSt23_Sp_counted_ptr_inplaceIN9libcamera15BoundMethodPackIvJRKNS0_3ipa3RPi9BufferIdsEbEEESaIvELN9__gnu_cxx12_Lock_policyE2EE10_M_disposeEv W
_ZNSt23_Sp_counted_ptr_inplaceIN9libcamera15BoundMethodPackIvJRKNS0_3ipa3RPi9BufferIdsEbEEESaIvELN9__gnu_cxx12_Lock_policyE2EE14_M_get_deleterERKSt9type_info W
_ZNSt23_Sp_counted_ptr_inplaceIN9libcamera15BoundMethodPackIvJRKNS0_3ipa3RPi9BufferIdsEbEEESaIvELN9__gnu_cxx12_Lock_policyE2EED0Ev W
_ZNSt23_Sp_counted_ptr_inplaceIN9libcamera15BoundMethodPackIvJRKNS0_3ipa3RPi9BufferIdsEbEEESaIvELN9__gnu_cxx12_Lock_policyE2EED1Ev W
_ZNSt23_Sp_counted_ptr_inplaceIN9libcamera15BoundMethodPackIvJRKNS0_3ipa3RPi9BufferIdsEbEEESaIvELN9__gnu_cxx12_Lock_policyE2EED2Ev W
_ZNSt23_Sp_counted_ptr_inplaceIN9libcamera15BoundMethodPackIvJRKNS0_3ipa3RPi9BufferIdsEEEESaIvELN9__gnu_cxx12_Lock_policyE2EE10_M_destroyEv W
_ZNSt23_Sp_counted_ptr_inplaceIN9libcamera15BoundMethodPackIvJRKNS0_3ipa3RPi9BufferIdsEEEESaIvELN9__gnu_cxx12_Lock_policyE2EE10_M_disposeEv W
_ZNSt23_Sp_counted_ptr_inplaceIN9libcamera15BoundMethodPackIvJRKNS0_3ipa3RPi9BufferIdsEEEESaIvELN9__gnu_cxx12_Lock_policyE2EE14_M_get_deleterERKSt9type_info W
_ZNSt23_Sp_counted_ptr_inplaceIN9libcamera15BoundMethodPackIvJRKNS0_3ipa3RPi9BufferIdsEEEESaIvELN9__gnu_cxx12_Lock_policyE2EED0Ev W
_ZNSt23_Sp_counted_ptr_inplaceIN9libcamera15BoundMethodPackIvJRKNS0_3ipa3RPi9BufferIdsEEEESaIvELN9__gnu_cxx12_Lock_policyE2EED1Ev W
_ZNSt23_Sp_counted_ptr_inplaceIN9libcamera15BoundMethodPackIvJRKNS0_3ipa3RPi9BufferIdsEEEESaIvELN9__gnu_cxx12_Lock_policyE2EED2Ev W
_ZNSt23_Sp_counted_ptr_inplaceINSt8__detail4_NFAINSt7__cxx1112regex_traitsIcEEEESaIvELN9__gnu_cxx12_Lock_policyE2EE10_M_destroyEv W
_ZNSt23_Sp_counted_ptr_inplaceINSt8__detail4_NFAINSt7__cxx1112regex_traitsIcEEEESaIvELN9__gnu_cxx12_Lock_policyE2EE10_M_disposeEv W
_ZNSt23_Sp_counted_ptr_inplaceINSt8__detail4_NFAINSt7__cxx1112regex_traitsIcEEEESaIvELN9__gnu_cxx12_Lock_policyE2EE14_M_get_deleterERKSt9type_info W
_ZNSt23_Sp_counted_ptr_inplaceINSt8__detail4_NFAINSt7__cxx1112regex_traitsIcEEEESaIvELN9__gnu_cxx12_Lock_policyE2EED0Ev W
_ZNSt23_Sp_counted_ptr_inplaceINSt8__detail4_NFAINSt7__cxx1112regex_traitsIcEEEESaIvELN9__gnu_cxx12_Lock_policyE2EED1Ev W
_ZNSt23_Sp_counted_ptr_inplaceINSt8__detail4_NFAINSt7__cxx1112regex_traitsIcEEEESaIvELN9__gnu_cxx12_Lock_policyE2EED2Ev W
_ZNSt3mapIjN9libcamera10ColorSpace13YcbcrEncodingESt4lessIjESaISt4pairIKjS2_EEEC1ESt16initializer_listIS7_ERKS4_RKS8_ W
_ZNSt3mapIjN9libcamera10ColorSpace13YcbcrEncodingESt4lessIjESaISt4pairIKjS2_EEEC2ESt16initializer_listIS7_ERKS4_RKS8_ W
_ZNSt3mapIjN9libcamera10ColorSpace13YcbcrEncodingESt4lessIjESaISt4pairIKjS2_EEED1Ev W
_ZNSt3mapIjN9libcamera10ColorSpace13YcbcrEncodingESt4lessIjESaISt4pairIKjS2_EEED2Ev W
_ZNSt3mapIjN9libcamera10ColorSpace16TransferFunctionESt4lessIjESaISt4pairIKjS2_EEEC1ESt16initializer_listIS7_ERKS4_RKS8_ W
_ZNSt3mapIjN9libcamera10ColorSpace16TransferFunctionESt4lessIjESaISt4pairIKjS2_EEEC2ESt16initializer_listIS7_ERKS4_RKS8_ W
_ZNSt3mapIjN9libcamera10ColorSpace16TransferFunctionESt4lessIjESaISt4pairIKjS2_EEED1Ev W
_ZNSt3mapIjN9libcamera10ColorSpace16TransferFunctionESt4lessIjESaISt4pairIKjS2_EEED2Ev W
_ZNSt3mapIjN9libcamera10ColorSpace5RangeESt4lessIjESaISt4pairIKjS2_EEEC1ESt16initializer_listIS7_ERKS4_RKS8_ W
_ZNSt3mapIjN9libcamera10ColorSpace5RangeESt4lessIjESaISt4pairIKjS2_EEEC2ESt16initializer_listIS7_ERKS4_RKS8_ W
_ZNSt3mapIjN9libcamera10ColorSpace5RangeESt4lessIjESaISt4pairIKjS2_EEED1Ev W
_ZNSt3mapIjN9libcamera10ColorSpace5RangeESt4lessIjESaISt4pairIKjS2_EEED2Ev W
_ZNSt3mapIjN9libcamera10ColorSpaceESt4lessIjESaISt4pairIKjS1_EEEC1ESt16initializer_listIS6_ERKS3_RKS7_ W
_ZNSt3mapIjN9libcamera10ColorSpaceESt4lessIjESaISt4pairIKjS1_EEEC2ESt16initializer_listIS6_ERKS3_RKS7_ W
_ZNSt3mapIjN9libcamera10ColorSpaceESt4lessIjESaISt4pairIKjS1_EEED1Ev W
_ZNSt3mapIjN9libcamera10ColorSpaceESt4lessIjESaISt4pairIKjS1_EEED2Ev W
_ZNSt3mapIjN9libcamera11PixelFormatESt4lessIjESaISt4pairIKjS1_EEED1Ev W
_ZNSt3mapIjN9libcamera11PixelFormatESt4lessIjESaISt4pairIKjS1_EEED2Ev W
_ZNSt3mapIjN9libcamera18MediaBusFormatInfoESt4lessIjESaISt4pairIKjS1_EEEC1ESt16initializer_listIS6_ERKS3_RKS7_ W
_ZNSt3mapIjN9libcamera18MediaBusFormatInfoESt4lessIjESaISt4pairIKjS1_EEEC2ESt16initializer_listIS6_ERKS3_RKS7_ W
_ZNSt3mapIjN9libcamera18MediaBusFormatInfoESt4lessIjESaISt4pairIKjS1_EEED1Ev W
_ZNSt3mapIjN9libcamera18MediaBusFormatInfoESt4lessIjESaISt4pairIKjS1_EEED2Ev W
_ZNSt3mapIN9libcamera10ColorSpace13YcbcrEncodingE19v4l2_ycbcr_encodingSt4lessIS2_ESaISt4pairIKS2_S3_EEEC1ESt16initializer_listIS8_ERKS5_RKS9_ W
_ZNSt3mapIN9libcamera10ColorSpace13YcbcrEncodingE19v4l2_ycbcr_encodingSt4lessIS2_ESaISt4pairIKS2_S3_EEEC2ESt16initializer_listIS8_ERKS5_RKS9_ W
_ZNSt3mapIN9libcamera10ColorSpace13YcbcrEncodingE19v4l2_ycbcr_encodingSt4lessIS2_ESaISt4pairIKS2_S3_EEED1Ev W
_ZNSt3mapIN9libcamera10ColorSpace13YcbcrEncodingE19v4l2_ycbcr_encodingSt4lessIS2_ESaISt4pairIKS2_S3_EEED2Ev W
_ZNSt3mapIN9libcamera10ColorSpace13YcbcrEncodingENSt7__cxx1112basic_stringIcSt11char_traitsIcESaIcEEESt4lessIS2_ESaISt4pairIKS2_S8_EEEC1ESt16initializer_listISD_ERKSA_RKSE_ W
_ZNSt3mapIN9libcamera10ColorSpace13YcbcrEncodingENSt7__cxx1112basic_stringIcSt11char_traitsIcESaIcEEESt4lessIS2_ESaISt4pairIKS2_S8_EEEC2ESt16initializer_listISD_ERKSA_RKSE_ W
_ZNSt3mapIN9libcamera10ColorSpace13YcbcrEncodingENSt7__cxx1112basic_stringIcSt11char_traitsIcESaIcEEESt4lessIS2_ESaISt4pairIKS2_S8_EEED1Ev W
_ZNSt3mapIN9libcamera10ColorSpace13YcbcrEncodingENSt7__cxx1112basic_stringIcSt11char_traitsIcESaIcEEESt4lessIS2_ESaISt4pairIKS2_S8_EEED2Ev W
_ZNSt3mapIN9libcamera10ColorSpace16TransferFunctionE14v4l2_xfer_funcSt4lessIS2_ESaISt4pairIKS2_S3_EEEC1ESt16initializer_listIS8_ERKS5_RKS9_ W
_ZNSt3mapIN9libcamera10ColorSpace16TransferFunctionE14v4l2_xfer_funcSt4lessIS2_ESaISt4pairIKS2_S3_EEEC2ESt16initializer_listIS8_ERKS5_RKS9_ W
_ZNSt3mapIN9libcamera10ColorSpace16TransferFunctionE14v4l2_xfer_funcSt4lessIS2_ESaISt4pairIKS2_S3_EEED1Ev W
_ZNSt3mapIN9libcamera10ColorSpace16TransferFunctionE14v4l2_xfer_funcSt4lessIS2_ESaISt4pairIKS2_S3_EEED2Ev W
_ZNSt3mapIN9libcamera10ColorSpace16TransferFunctionENSt7__cxx1112basic_stringIcSt11char_traitsIcESaIcEEESt4lessIS2_ESaISt4pairIKS2_S8_EEED1Ev W
_ZNSt3mapIN9libcamera10ColorSpace16TransferFunctionENSt7__cxx1112basic_stringIcSt11char_traitsIcESaIcEEESt4lessIS2_ESaISt4pairIKS2_S8_EEED2Ev W
_ZNSt3mapIN9libcamera10ColorSpace5RangeE17v4l2_quantizationSt4lessIS2_ESaISt4pairIKS2_S3_EEEC1ESt16initializer_listIS8_ERKS5_RKS9_ W
_ZNSt3mapIN9libcamera10ColorSpace5RangeE17v4l2_quantizationSt4lessIS2_ESaISt4pairIKS2_S3_EEEC2ESt16initializer_listIS8_ERKS5_RKS9_ W
_ZNSt3mapIN9libcamera10ColorSpace5RangeE17v4l2_quantizationSt4lessIS2_ESaISt4pairIKS2_S3_EEED1Ev W
_ZNSt3mapIN9libcamera10ColorSpace5RangeE17v4l2_quantizationSt4lessIS2_ESaISt4pairIKS2_S3_EEED2Ev W
_ZNSt3mapIN9libcamera10ColorSpace5RangeENSt7__cxx1112basic_stringIcSt11char_traitsIcESaIcEEESt4lessIS2_ESaISt4pairIKS2_S8_EEEC1ESt16initializer_listISD_ERKSA_RKSE_ W
_ZNSt3mapIN9libcamera10ColorSpace5RangeENSt7__cxx1112basic_stringIcSt11char_traitsIcESaIcEEESt4lessIS2_ESaISt4pairIKS2_S8_EEEC2ESt16initializer_listISD_ERKSA_RKSE_ W
_ZNSt3mapIN9libcamera10ColorSpace5RangeENSt7__cxx1112basic_stringIcSt11char_traitsIcESaIcEEESt4lessIS2_ESaISt4pairIKS2_S8_EEED1Ev W
_ZNSt3mapIN9libcamera10ColorSpace5RangeENSt7__cxx1112basic_stringIcSt11char_traitsIcESaIcEEESt4lessIS2_ESaISt4pairIKS2_S8_EEED2Ev W
_ZNSt3mapIN9libcamera10ColorSpace9PrimariesE15v4l2_colorspaceSt4lessIS2_ESaISt4pairIKS2_S3_EEEC1ESt16initializer_listIS8_ERKS5_RKS9_ W
_ZNSt3mapIN9libcamera10ColorSpace9PrimariesE15v4l2_colorspaceSt4lessIS2_ESaISt4pairIKS2_S3_EEEC2ESt16initializer_listIS8_ERKS5_RKS9_ W
_ZNSt3mapIN9libcamera10ColorSpace9PrimariesE15v4l2_colorspaceSt4lessIS2_ESaISt4pairIKS2_S3_EEED1Ev W
_ZNSt3mapIN9libcamera10ColorSpace9PrimariesE15v4l2_colorspaceSt4lessIS2_ESaISt4pairIKS2_S3_EEED2Ev W
_ZNSt3mapIN9libcamera10ColorSpace9PrimariesENSt7__cxx1112basic_stringIcSt11char_traitsIcESaIcEEESt4lessIS2_ESaISt4pairIKS2_S8_EEEC1ESt16initializer_listISD_ERKSA_RKSE_ W
_ZNSt3mapIN9libcamera10ColorSpace9PrimariesENSt7__cxx1112basic_stringIcSt11char_traitsIcESaIcEEESt4lessIS2_ESaISt4pairIKS2_S8_EEEC2ESt16initializer_listISD_ERKSA_RKSE_ W
_ZNSt3mapIN9libcamera10ColorSpace9PrimariesENSt7__cxx1112basic_stringIcSt11char_traitsIcESaIcEEESt4lessIS2_ESaISt4pairIKS2_S8_EEED1Ev W
_ZNSt3mapIN9libcamera10ColorSpace9PrimariesENSt7__cxx1112basic_stringIcSt11char_traitsIcESaIcEEESt4lessIS2_ESaISt4pairIKS2_S8_EEED2Ev W
_ZNSt3mapIN9libcamera11PixelFormatEjSt4lessIS1_ESaISt4pairIKS1_jEEEC1ESt16initializer_listIS6_ERKS3_RKS7_ W
_ZNSt3mapIN9libcamera11PixelFormatEjSt4lessIS1_ESaISt4pairIKS1_jEEEC2ESt16initializer_listIS6_ERKS3_RKS7_ W
_ZNSt3mapIN9libcamera11PixelFormatEjSt4lessIS1_ESaISt4pairIKS1_jEEED1Ev W
_ZNSt3mapIN9libcamera11PixelFormatEjSt4lessIS1_ESaISt4pairIKS1_jEEED2Ev W
_ZNSt3mapIN9libcamera11PixelFormatENS0_15PixelFormatInfoESt4lessIS1_ESaISt4pairIKS1_S2_EEEC1ESt16initializer_listIS7_ERKS4_RKS8_ W
_ZNSt3mapIN9libcamera11PixelFormatENS0_15PixelFormatInfoESt4lessIS1_ESaISt4pairIKS1_S2_EEEC2ESt16initializer_listIS7_ERKS4_RKS8_ W
_ZNSt3mapIN9libcamera11PixelFormatENS0_15PixelFormatInfoESt4lessIS1_ESaISt4pairIKS1_S2_EEED1Ev W
_ZNSt3mapIN9libcamera11PixelFormatENS0_15PixelFormatInfoESt4lessIS1_ESaISt4pairIKS1_S2_EEED2Ev W
_ZNSt3mapIN9libcamera15V4L2PixelFormatENS1_4InfoESt4lessIS1_ESaISt4pairIKS1_S2_EEEC1ESt16initializer_listIS7_ERKS4_RKS8_ W
_ZNSt3mapIN9libcamera15V4L2PixelFormatENS1_4InfoESt4lessIS1_ESaISt4pairIKS1_S2_EEEC2ESt16initializer_listIS7_ERKS4_RKS8_ W
_ZNSt3mapIN9libcamera15V4L2PixelFormatENS1_4InfoESt4lessIS1_ESaISt4pairIKS1_S2_EEED1Ev W
_ZNSt3mapIN9libcamera15V4L2PixelFormatENS1_4InfoESt4lessIS1_ESaISt4pairIKS1_S2_EEED2Ev W
_ZNSt3mapINSt7__cxx1112basic_stringIcSt11char_traitsIcESaIcEEEiSt4lessIS5_ESaISt4pairIKS5_iEEEC1ESt16initializer_listISA_ERKS7_RKSB_ W
_ZNSt3mapINSt7__cxx1112basic_stringIcSt11char_traitsIcESaIcEEEiSt4lessIS5_ESaISt4pairIKS5_iEEEC2ESt16initializer_listISA_ERKS7_RKSB_ W
_ZNSt3mapINSt7__cxx1112basic_stringIcSt11char_traitsIcESaIcEEEiSt4lessIS5_ESaISt4pairIKS5_iEEED1Ev W
_ZNSt3mapINSt7__cxx1112basic_stringIcSt11char_traitsIcESaIcEEEiSt4lessIS5_ESaISt4pairIKS5_iEEED2Ev W
_ZNSt3mapINSt7__cxx1112basic_stringIcSt11char_traitsIcESaIcEEEKN9libcamera22CameraSensorPropertiesESt4lessIS5_ESaISt4pairIKS5_S8_EEED1Ev W
_ZNSt3mapINSt7__cxx1112basic_stringIcSt11char_traitsIcESaIcEEEKN9libcamera22CameraSensorPropertiesESt4lessIS5_ESaISt4pairIKS5_S8_EEED2Ev W
_ZNSt4pairIKNSt7__cxx1112basic_stringIcSt11char_traitsIcESaIcEEEKN9libcamera22CameraSensorPropertiesEEC1IS6_S9_Lb1EEERS6_RS9_ W
_ZNSt4pairIKNSt7__cxx1112basic_stringIcSt11char_traitsIcESaIcEEEKN9libcamera22CameraSensorPropertiesEEC2IS6_S9_Lb1EEERS6_RS9_ W
_ZNSt5arrayIKN9libcamera12ControlValueELm2EED1Ev W
_ZNSt5arrayIKN9libcamera12ControlValueELm2EED2Ev W
_ZNSt5arrayIKN9libcamera12ControlValueELm3EED1Ev W
_ZNSt5arrayIKN9libcamera12ControlValueELm3EED2Ev W
_ZNSt5arrayIKN9libcamera12ControlValueELm4EED1Ev W
_ZNSt5arrayIKN9libcamera12ControlValueELm4EED2Ev W
_ZNSt5arrayIKN9libcamera12ControlValueELm5EED1Ev W
_ZNSt5arrayIKN9libcamera12ControlValueELm5EED2Ev W
_ZNSt5arrayIKN9libcamera12ControlValueELm6EED1Ev W
_ZNSt5arrayIKN9libcamera12ControlValueELm6EED2Ev W
_ZNSt5arrayIKN9libcamera12ControlValueELm8EED1Ev W
_ZNSt5arrayIKN9libcamera12ControlValueELm8EED2Ev W
_ZNSt5dequeIlSaIlEE16_M_push_back_auxIJRKlEEEvDpOT_ W
_ZNSt5dequeIN9libcamera13Vc4CameraData10BayerFrameESaIS2_EED1Ev W
_ZNSt5dequeIN9libcamera13Vc4CameraData10BayerFrameESaIS2_EED2Ev W
_ZNSt5dequeIN9libcamera14PiSPCameraData6CfeJobESaIS2_EED1Ev W
_ZNSt5dequeIN9libcamera14PiSPCameraData6CfeJobESaIS2_EED2Ev W
_ZNSt5dequeIN9libcamera16SimpleCameraData14RequestOutputsESaIS2_EE16_M_push_back_auxIJS2_EEEvDpOT_ W
_ZNSt5dequeIN9libcamera16SimpleCameraData14RequestOutputsESaIS2_EED1Ev W
_ZNSt5dequeIN9libcamera16SimpleCameraData14RequestOutputsESaIS2_EED2Ev W
_ZNSt5dequeINSt8__detail9_StateSeqINSt7__cxx1112regex_traitsIcEEEESaIS5_EE16_M_push_back_auxIJRKS5_EEEvDpOT_ W
_ZNSt5dequeINSt8__detail9_StateSeqINSt7__cxx1112regex_traitsIcEEEESaIS5_EE17_M_reallocate_mapEmb W
_ZNSt5dequeINSt8__detail9_StateSeqINSt7__cxx1112regex_traitsIcEEEESaIS5_EE9push_backERKS5_ W
_ZNSt5dequeIPN9libcamera11FrameBufferESaIS2_EE16_M_push_back_auxIJRKS2_EEEvDpOT_ W
_ZNSt5dequeIPN9libcamera11FrameBufferESaIS2_EE17_M_reallocate_mapEmb W
_ZNSt5dequeIPN9libcamera7RequestESaIS2_EE16_M_push_back_auxIJRKS2_EEEvDpOT_ W
_ZNSt6vectorI16v4l2_ext_controlSaIS0_EE17_M_default_appendEm W
_ZNSt6vectorI16v4l2_ext_controlSaIS0_EED1Ev W
_ZNSt6vectorI16v4l2_ext_controlSaIS0_EED2Ev W
_ZNSt6vectorI17v4l2_subdev_routeSaIS0_EE17_M_default_appendEm W
_ZNSt6vectorI17v4l2_subdev_routeSaIS0_EED1Ev W
_ZNSt6vectorI17v4l2_subdev_routeSaIS0_EED2Ev W
_ZNSt6vectorIaSaIaEE17_M_realloc_insertIJRKaEEEvN9__gnu_cxx17__normal_iteratorIPaS1_EEDpOT_ W
_ZNSt6vectorIcSaIcEE17_M_realloc_insertIJcEEEvN9__gnu_cxx17__normal_iteratorIPcS1_EEDpOT_ W
_ZNSt6vectorIcSaIcEED1Ev W
_ZNSt6vectorIcSaIcEED2Ev W
_ZNSt6vectorIdSaIdEE17_M_realloc_insertIJRKdEEEvN9__gnu_cxx17__normal_iteratorIPdS1_EEDpOT_ W
_ZNSt6vectorIfSaIfEE17_M_realloc_insertIJRKfEEEvN9__gnu_cxx17__normal_iteratorIPfS1_EEDpOT_ W
_ZNSt6vectorIhSaIhEE17_M_default_appendEm W
_ZNSt6vectorIhSaIhEE17_M_realloc_insertIJRKhEEEvN9__gnu_cxx17__normal_iteratorIPhS1_EEDpOT_ W
_ZNSt6vectorIhSaIhEED1Ev W
_ZNSt6vectorIhSaIhEED2Ev W
_ZNSt6vectorIiSaIiEE17_M_default_appendEm W
_ZNSt6vectorIiSaIiEE17_M_realloc_insertIJiEEEvN9__gnu_cxx17__normal_iteratorIPiS1_EEDpOT_ W
_ZNSt6vectorIiSaIiEE17_M_realloc_insertIJRKiEEEvN9__gnu_cxx17__normal_iteratorIPiS1_EEDpOT_ W
_ZNSt6vectorIiSaIiEED1Ev W
_ZNSt6vectorIiSaIiEED2Ev W
_ZNSt6vectorIjSaIjEE17_M_realloc_insertIJjEEEvN9__gnu_cxx17__normal_iteratorIPjS1_EEDpOT_ W
_ZNSt6vectorIjSaIjEE17_M_realloc_insertIJRKjEEEvN9__gnu_cxx17__normal_iteratorIPjS1_EEDpOT_ W
_ZNSt6vectorIjSaIjEED1Ev W
_ZNSt6vectorIjSaIjEED2Ev W
_ZNSt6vectorIlSaIlEE17_M_realloc_insertIJlEEEvN9__gnu_cxx17__normal_iteratorIPlS1_EEDpOT_ W
_ZNSt6vectorImSaImEE17_M_realloc_insertIJRKmEEEvN9__gnu_cxx17__normal_iteratorIPmS1_EEDpOT_ W
_ZNSt6vectorIN9libcamera10ColorSpaceESaIS1_EED1Ev W
_ZNSt6vectorIN9libcamera10ColorSpaceESaIS1_EED2Ev W
_ZNSt6vectorIN9libcamera10YamlObject5ValueESaIS2_EE17_M_realloc_insertIJNSt7__cxx1112basic_stringIcSt11char_traitsIcESaIcEEESt10unique_ptrIS1_St14default_deleteIS1_EEEEEvN9__gnu_cxx17__normal_iteratorIPS2_S4_EEDpOT_ W
_ZNSt6vectorIN9libcamera11FrameBuffer5PlaneESaIS2_EE17_M_default_appendEm W
_ZNSt6vectorIN9libcamera11FrameBuffer5PlaneESaIS2_EE17_M_realloc_insertIJS2_EEEvN9__gnu_cxx17__normal_iteratorIPS2_S4_EEDpOT_ W
_ZNSt6vectorIN9libcamera11PixelFormatESaIS1_EE17_M_realloc_insertIJRKS1_EEEvN9__gnu_cxx17__normal_iteratorIPS1_S3_EEDpOT_ W
_ZNSt6vectorIN9libcamera11PixelFormatESaIS1_EED1Ev W
_ZNSt6vectorIN9libcamera11PixelFormatESaIS1_EED2Ev W
_ZNSt6vectorIN9libcamera12ControlValueESaIS1_EE17_M_realloc_insertIJRKS1_EEEvN9__gnu_cxx17__normal_iteratorIPS1_S3_EEDpOT_ W
_ZNSt6vectorIN9libcamera12ControlValueESaIS1_EE17_M_realloc_insertIJS1_EEEvN9__gnu_cxx17__normal_iteratorIPS1_S3_EEDpOT_ W
_ZNSt6vectorIN9libcamera12ControlValueESaIS1_EED1Ev W
_ZNSt6vectorIN9libcamera12ControlValueESaIS1_EED2Ev W
_ZNSt6vectorIN9libcamera13FrameMetadata5PlaneESaIS2_EE17_M_default_appendEm W
_ZNSt6vectorIN9libcamera13V4L2Subdevice5RouteESaIS2_EE17_M_default_appendEm W
_ZNSt6vectorIN9libcamera13V4L2Subdevice5RouteESaIS2_EE17_M_realloc_insertIJNS1_6StreamES6_jEEEvN9__gnu_cxx17__normal_iteratorIPS2_S4_EEDpOT_ W
_ZNSt6vectorIN9libcamera13V4L2Subdevice5RouteESaIS2_EED1Ev W
_ZNSt6vectorIN9libcamera13V4L2Subdevice5RouteESaIS2_EED2Ev W
_ZNSt6vectorIN9libcamera15V4L2BufferCache5Entry5PlaneESaIS3_EE17_M_realloc_insertIJRKNS0_11FrameBuffer5PlaneEEEEvN9__gnu_cxx17__normal_iteratorIPS3_S5_EEDpOT_ W
_ZNSt6vectorIN9libcamera15V4L2BufferCache5Entry5PlaneESaIS3_EED1Ev W
_ZNSt6vectorIN9libcamera15V4L2BufferCache5Entry5PlaneESaIS3_EED2Ev W
_ZNSt6vectorIN9libcamera15V4L2BufferCache5EntryESaIS2_EE17_M_default_appendEm W
_ZNSt6vectorIN9libcamera15V4L2BufferCache5EntryESaIS2_EE17_M_realloc_insertIJbmRNS0_11FrameBufferEEEEvN9__gnu_cxx17__normal_iteratorIPS2_S4_EEDpOT_ W
_ZNSt6vectorIN9libcamera15V4L2BufferCache5EntryESaIS2_EED1Ev W
_ZNSt6vectorIN9libcamera15V4L2BufferCache5EntryESaIS2_EED2Ev W
_ZNSt6vectorIN9libcamera15V4L2PixelFormatESaIS1_EE17_M_realloc_insertIJS1_EEEvN9__gnu_cxx17__normal_iteratorIPS1_S3_EEDpOT_ W
_ZNSt6vectorIN9libcamera15V4L2PixelFormatESaIS1_EED1Ev W
_ZNSt6vectorIN9libcamera15V4L2PixelFormatESaIS1_EED2Ev W
_ZNSt6vectorIN9libcamera16SimpleCameraData13ConfigurationESaIS2_EE17_M_realloc_insertIJRKS2_EEEvN9__gnu_cxx17__normal_iteratorIPS2_S4_EEDpOT_ W
_ZNSt6vectorIN9libcamera18PipelineHandlerISI4PipeESaIS2_EE17_M_realloc_insertIJS2_EEEvN9__gnu_cxx17__normal_iteratorIPS2_S4_EEDpOT_ W
_ZNSt6vectorIN9libcamera19StreamConfigurationESaIS1_EE17_M_default_appendEm W
_ZNSt6vectorIN9libcamera19StreamConfigurationESaIS1_EE17_M_realloc_insertIJRKS1_EEEvN9__gnu_cxx17__normal_iteratorIPS1_S3_EEDpOT_ W
_ZNSt6vectorIN9libcamera3RPi22RPiCameraConfiguration12StreamParamsESaIS3_EE17_M_realloc_insertIJjPNS0_19StreamConfigurationEEEEvN9__gnu_cxx17__normal_iteratorIPS3_S5_EEDpOT_ W
_ZNSt6vectorIN9libcamera4SizeESaIS1_EE17_M_realloc_insertIJRKS1_EEEvN9__gnu_cxx17__normal_iteratorIPS1_S3_EEDpOT_ W
_ZNSt6vectorIN9libcamera4SizeESaIS1_EE17_M_realloc_insertIJS1_EEEvN9__gnu_cxx17__normal_iteratorIPS1_S3_EEDpOT_ W
_ZNSt6vectorIN9libcamera4SizeESaIS1_EED1Ev W
_ZNSt6vectorIN9libcamera4SizeESaIS1_EED2Ev W
_ZNSt6vectorIN9libcamera4SpanIhLm18446744073709551615EEESaIS2_EED1Ev W
_ZNSt6vectorIN9libcamera4SpanIhLm18446744073709551615EEESaIS2_EED2Ev W
_ZNSt6vectorIN9libcamera6StreamESaIS1_EE17_M_default_appendEm W
_ZNSt6vectorIN9libcamera6StreamESaIS1_EED1Ev W
_ZNSt6vectorIN9libcamera6StreamESaIS1_EED2Ev W
_ZNSt6vectorIN9libcamera8controls5draft19TestPatternModeEnumESaIS3_EE17_M_realloc_insertIJRKS3_EEEvN9__gnu_cxx17__normal_iteratorIPS3_S5_EEDpOT_ W
_ZNSt6vectorIN9libcamera8SharedFDESaIS1_EE17_M_realloc_insertIJRKS1_EEEvN9__gnu_cxx17__normal_iteratorIPS1_S3_EEDpOT_ W
_ZNSt6vectorIN9libcamera8SharedFDESaIS1_EE17_M_realloc_insertIJS1_EEEvN9__gnu_cxx17__normal_iteratorIPS1_S3_EEDpOT_ W
_ZNSt6vectorIN9libcamera8SharedFDESaIS1_EEC1ERKS3_ W
_ZNSt6vectorIN9libcamera8SharedFDESaIS1_EEC2ERKS3_ W
_ZNSt6vectorIN9libcamera8SharedFDESaIS1_EED1Ev W
_ZNSt6vectorIN9libcamera8SharedFDESaIS1_EED2Ev W
_ZNSt6vectorIN9libcamera9DmaSyncerESaIS1_EE17_M_realloc_insertIJRKNS0_8SharedFDENS1_8SyncTypeEEEEvN9__gnu_cxx17__normal_iteratorIPS1_S3_EEDpOT_ W
_ZNSt6vectorIN9libcamera9IPABufferESaIS1_EE17_M_realloc_insertIJmRKS_INS0_11FrameBuffer5PlaneESaIS6_EEEEEvN9__gnu_cxx17__normal_iteratorIPS1_S3_EEDpOT_ W
_ZNSt6vectorIN9libcamera9IPABufferESaIS1_EE17_M_realloc_insertIJS1_EEEvN9__gnu_cxx17__normal_iteratorIPS1_S3_EEDpOT_ W
_ZNSt6vectorIN9libcamera9RectangleESaIS1_EE17_M_realloc_insertIJRKS1_EEEvN9__gnu_cxx17__normal_iteratorIPS1_S3_EEDpOT_ W
_ZNSt6vectorIN9libcamera9RectangleESaIS1_EE17_M_realloc_insertIJS1_EEEvN9__gnu_cxx17__normal_iteratorIPS1_S3_EEDpOT_ W
_ZNSt6vectorIN9libcamera9RectangleESaIS1_EED1Ev W
_ZNSt6vectorIN9libcamera9RectangleESaIS1_EED2Ev W
_ZNSt6vectorIN9libcamera9SizeRangeESaIS1_EE17_M_realloc_insertIJNS0_4SizeEEEEvN9__gnu_cxx17__normal_iteratorIPS1_S3_EEDpOT_ W
_ZNSt6vectorIN9libcamera9SizeRangeESaIS1_EE17_M_realloc_insertIJNS0_4SizeES5_EEEvN9__gnu_cxx17__normal_iteratorIPS1_S3_EEDpOT_ W
_ZNSt6vectorIN9libcamera9SizeRangeESaIS1_EE17_M_realloc_insertIJRKS1_EEEvN9__gnu_cxx17__normal_iteratorIPS1_S3_EEDpOT_ W
_ZNSt6vectorIN9libcamera9SizeRangeESaIS1_EE17_M_realloc_insertIJS1_EEEvN9__gnu_cxx17__normal_iteratorIPS1_S3_EEDpOT_ W
_ZNSt6vectorIN9libcamera9SizeRangeESaIS1_EED1Ev W
_ZNSt6vectorIN9libcamera9SizeRangeESaIS1_EED2Ev W
_ZNSt6vectorINSt7__cxx1112basic_stringIcSt11char_traitsIcESaIcEEESaIS5_EE17_M_realloc_insertIJRKS5_EEEvN9__gnu_cxx17__normal_iteratorIPS5_S7_EEDpOT_ W
_ZNSt6vectorINSt7__cxx1112basic_stringIcSt11char_traitsIcESaIcEEESaIS5_EE17_M_realloc_insertIJS5_EEEvN9__gnu_cxx17__normal_iteratorIPS5_S7_EEDpOT_ W
_ZNSt6vectorINSt7__cxx1112basic_stringIcSt11char_traitsIcESaIcEEESaIS5_EE9push_backERKS5_ W
_ZNSt6vectorINSt7__cxx1112basic_stringIcSt11char_traitsIcESaIcEEESaIS5_EEC1ERKS7_ W
_ZNSt6vectorINSt7__cxx1112basic_stringIcSt11char_traitsIcESaIcEEESaIS5_EEC2ERKS7_ W
_ZNSt6vectorINSt7__cxx1112basic_stringIcSt11char_traitsIcESaIcEEESaIS5_EED1Ev W
_ZNSt6vectorINSt7__cxx1112basic_stringIcSt11char_traitsIcESaIcEEESaIS5_EED2Ev W
_ZNSt6vectorINSt7__cxx1112regex_traitsIcE10_RegexMaskESaIS3_EE17_M_realloc_insertIJRKS3_EEEvN9__gnu_cxx17__normal_iteratorIPS3_S5_EEDpOT_ W
_ZNSt6vectorINSt7__cxx119sub_matchIN9__gnu_cxx17__normal_iteratorIPKcNS0_12basic_stringIcSt11char_traitsIcESaIcEEEEEEESaISC_EE14_M_fill_assignEmRKSC_ W
_ZNSt6vectorINSt7__cxx119sub_matchIN9__gnu_cxx17__normal_iteratorIPKcNS0_12basic_stringIcSt11char_traitsIcESaIcEEEEEEESaISC_EED1Ev W
_ZNSt6vectorINSt7__cxx119sub_matchIN9__gnu_cxx17__normal_iteratorIPKcNS0_12basic_stringIcSt11char_traitsIcESaIcEEEEEEESaISC_EED2Ev W
_ZNSt6vectorINSt8__detail6_StateIcEESaIS2_EE17_M_realloc_insertIJS2_EEEvN9__gnu_cxx17__normal_iteratorIPS2_S4_EEDpOT_ W
_ZNSt6vectorIPKN9libcamera16SimpleCameraData13ConfigurationESaIS4_EE17_M_realloc_insertIJS4_EEEvN9__gnu_cxx17__normal_iteratorIPS4_S6_EEDpOT_ W
_ZNSt6vectorIPKN9libcamera8MediaPadESaIS3_EE17_M_realloc_insertIJRKS3_EEEvN9__gnu_cxx17__normal_iteratorIPS3_S5_EEDpOT_ W
_ZNSt6vectorIPKN9libcamera8MediaPadESaIS3_EED1Ev W
_ZNSt6vectorIPKN9libcamera8MediaPadESaIS3_EED2Ev W
_ZNSt6vectorIPN9libcamera11FrameBufferESaIS2_EE17_M_realloc_insertIJRKS2_EEEvN9__gnu_cxx17__normal_iteratorIPS2_S4_EEDpOT_ W
_ZNSt6vectorIPN9libcamera11FrameBufferESaIS2_EED1Ev W
_ZNSt6vectorIPN9libcamera11FrameBufferESaIS2_EED2Ev W
_ZNSt6vectorIPN9libcamera11MediaEntityESaIS2_EE17_M_realloc_insertIJRKS2_EEEvN9__gnu_cxx17__normal_iteratorIPS2_S4_EEDpOT_ W
_ZNSt6vectorIPN9libcamera11MediaEntityESaIS2_EED1Ev W
_ZNSt6vectorIPN9libcamera11MediaEntityESaIS2_EED2Ev W
_ZNSt6vectorIPN9libcamera20ConverterFactoryBaseESaIS2_EE17_M_realloc_insertIJRKS2_EEEvN9__gnu_cxx17__normal_iteratorIPS2_S4_EEDpOT_ W
_ZNSt6vectorIPN9libcamera20ConverterFactoryBaseESaIS2_EED1Ev W
_ZNSt6vectorIPN9libcamera20ConverterFactoryBaseESaIS2_EED2Ev W
_ZNSt6vectorIPN9libcamera23CameraSensorFactoryBaseESaIS2_EE17_M_realloc_insertIJRKS2_EEEvN9__gnu_cxx17__normal_iteratorIPS2_S4_EEDpOT_ W
_ZNSt6vectorIPN9libcamera23CameraSensorFactoryBaseESaIS2_EED1Ev W
_ZNSt6vectorIPN9libcamera23CameraSensorFactoryBaseESaIS2_EED2Ev W
_ZNSt6vectorIPN9libcamera26PipelineHandlerFactoryBaseESaIS2_EE17_M_realloc_insertIJRKS2_EEEvN9__gnu_cxx17__normal_iteratorIPS2_S4_EEDpOT_ W
_ZNSt6vectorIPN9libcamera26PipelineHandlerFactoryBaseESaIS2_EED1Ev W
_ZNSt6vectorIPN9libcamera26PipelineHandlerFactoryBaseESaIS2_EED2Ev W
_ZNSt6vectorIPN9libcamera3RPi6StreamESaIS3_EE17_M_realloc_insertIJRKS3_EEEvN9__gnu_cxx17__normal_iteratorIPS3_S5_EEDpOT_ W
_ZNSt6vectorIPN9libcamera3RPi6StreamESaIS3_EE17_M_realloc_insertIJS3_EEEvN9__gnu_cxx17__normal_iteratorIPS3_S5_EEDpOT_ W
_ZNSt6vectorIPN9libcamera6StreamESaIS2_EE17_M_realloc_insertIJS2_EEEvN9__gnu_cxx17__normal_iteratorIPS2_S4_EEDpOT_ W
_ZNSt6vectorIsSaIsEE17_M_realloc_insertIJRKsEEEvN9__gnu_cxx17__normal_iteratorIPsS1_EEDpOT_ W
_ZNSt6vectorISt10shared_ptrIN9libcamera11MediaDeviceEESaIS3_EE17_M_realloc_insertIJRKS3_EEEvN9__gnu_cxx17__normal_iteratorIPS3_S5_EEDpOT_ W
_ZNSt6vectorISt10shared_ptrIN9libcamera11MediaDeviceEESaIS3_EE17_M_realloc_insertIJS3_EEEvN9__gnu_cxx17__normal_iteratorIPS3_S5_EEDpOT_ W
_ZNSt6vectorISt10shared_ptrIN9libcamera11MediaDeviceEESaIS3_EED1Ev W
_ZNSt6vectorISt10shared_ptrIN9libcamera11MediaDeviceEESaIS3_EED2Ev W
_ZNSt6vectorISt10shared_ptrIN9libcamera6CameraEESaIS3_EE17_M_realloc_insertIJRKS3_EEEvN9__gnu_cxx17__normal_iteratorIPS3_S5_EEDpOT_ W
_ZNSt6vectorISt10shared_ptrIN9libcamera6CameraEESaIS3_EED1Ev W
_ZNSt6vectorISt10shared_ptrIN9libcamera6CameraEESaIS3_EED2Ev W
_ZNSt6vectorISt10unique_ptrIN9libcamera11FrameBufferESt14default_deleteIS2_EESaIS5_EE17_M_realloc_insertIJS5_EEEvN9__gnu_cxx17__normal_iteratorIPS5_S7_EEDpOT_ W
_ZNSt6vectorISt10unique_ptrIN9libcamera11FrameBufferESt14default_deleteIS2_EESaIS5_EED1Ev W
_ZNSt6vectorISt10unique_ptrIN9libcamera11FrameBufferESt14default_deleteIS2_EESaIS5_EED2Ev W
_ZNSt6vectorISt10unique_ptrIN9libcamera16SimpleCameraDataESt14default_deleteIS2_EESaIS5_EE17_M_realloc_insertIJS5_EEEvN9__gnu_cxx17__normal_iteratorIPS5_S7_EEDpOT_ W
_ZNSt6vectorISt10unique_ptrIN9libcamera9ControlIdESt14default_deleteIS2_EESaIS5_EE17_M_realloc_insertIJS5_EEEvN9__gnu_cxx17__normal_iteratorIPS5_S7_EEDpOT_ W
_ZNSt6vectorISt10unique_ptrIN9libcamera9ControlIdESt14default_deleteIS2_EESaIS5_EED1Ev W
_ZNSt6vectorISt10unique_ptrIN9libcamera9ControlIdESt14default_deleteIS2_EESaIS5_EED2Ev W
_ZNSt6vectorISt10unique_ptrIN9libcamera9IPAModuleESt14default_deleteIS2_EESaIS5_EE17_M_realloc_insertIJS5_EEEvN9__gnu_cxx17__normal_iteratorIPS5_S7_EEDpOT_ W
_ZNSt6vectorISt10unique_ptrISt13unordered_mapIjPKN9libcamera9ControlIdESt4hashIjESt8equal_toIjESaISt4pairIKjS5_EEESt14default_deleteISE_EESaISH_EE17_M_realloc_insertIJSH_EEEvN9__gnu_cxx17__normal_iteratorIPSH_SJ_EEDpOT_ W
_ZNSt6vectorISt17reference_wrapperIN9libcamera19StreamConfigurationEESaIS3_EE17_M_realloc_insertIJS3_EEEvN9__gnu_cxx17__normal_iteratorIPS3_S5_EEDpOT_ W
_ZNSt6vectorISt4pairIccESaIS1_EE17_M_realloc_insertIJS1_EEEvN9__gnu_cxx17__normal_iteratorIPS1_S3_EEDpOT_ W
_ZNSt6vectorISt4pairIccESaIS1_EED1Ev W
_ZNSt6vectorISt4pairIccESaIS1_EED2Ev W
_ZNSt6vectorISt4pairIlS_INSt7__cxx119sub_matchIN9__gnu_cxx17__normal_iteratorIPKcNS1_12basic_stringIcSt11char_traitsIcESaIcEEEEEEESaISD_EEESaISG_EE17_M_realloc_insertIJRlRKSF_EEEvNS4_IPSG_SI_EEDpOT_ W
_ZNSt6vectorISt4pairIlS_INSt7__cxx119sub_matchIN9__gnu_cxx17__normal_iteratorIPKcNS1_12basic_stringIcSt11char_traitsIcESaIcEEEEEEESaISD_EEESaISG_EED1Ev W
_ZNSt6vectorISt4pairIlS_INSt7__cxx119sub_matchIN9__gnu_cxx17__normal_iteratorIPKcNS1_12basic_stringIcSt11char_traitsIcESaIcEEEEEEESaISD_EEESaISG_EED2Ev W
_ZNSt6vectorISt4pairIN9__gnu_cxx17__normal_iteratorIPKcNSt7__cxx1112basic_stringIcSt11char_traitsIcESaIcEEEEEiESaISC_EED1Ev W
_ZNSt6vectorISt4pairIN9__gnu_cxx17__normal_iteratorIPKcNSt7__cxx1112basic_stringIcSt11char_traitsIcESaIcEEEEEiESaISC_EED2Ev W
_ZNSt6vectorISt4pairIN9libcamera10ColorSpaceE15v4l2_colorspaceESaIS4_EED1Ev W
_ZNSt6vectorISt4pairIN9libcamera10ColorSpaceE15v4l2_colorspaceESaIS4_EED2Ev W
_ZNSt6vectorISt4pairIN9libcamera11BayerFormatEjESaIS3_EED1Ev W
_ZNSt6vectorISt4pairIN9libcamera11BayerFormatEjESaIS3_EED2Ev W
_ZNSt6vectorISt4pairINSt7__cxx1112basic_stringIcSt11char_traitsIcESaIcEEES6_ESaIS7_EE17_M_realloc_insertIJS7_EEEvN9__gnu_cxx17__normal_iteratorIPS7_S9_EEDpOT_ W
_ZNSt6vectorISt4pairINSt7__cxx1112basic_stringIcSt11char_traitsIcESaIcEEES6_ESaIS7_EEC1ERKS9_ W
_ZNSt6vectorISt4pairINSt7__cxx1112basic_stringIcSt11char_traitsIcESaIcEEES6_ESaIS7_EEC2ERKS9_ W
_ZNSt6vectorISt4pairINSt7__cxx1112basic_stringIcSt11char_traitsIcESaIcEEES6_ESaIS7_EED1Ev W
_ZNSt6vectorISt4pairINSt7__cxx1112basic_stringIcSt11char_traitsIcESaIcEEES6_ESaIS7_EED2Ev W
_ZNSt6vectorISt4pairIPKcjESaIS3_EEC1ESt16initializer_listIS3_ERKS4_ W
_ZNSt6vectorISt4pairIPKcjESaIS3_EEC2ESt16initializer_listIS3_ERKS4_ W
_ZNSt6vectorISt4pairISt10unique_ptrIN9libcamera13V4L2SubdeviceESt14default_deleteIS3_EEPNS2_9MediaLinkEESaIS9_EE17_M_realloc_insertIJS6_RS8_EEEvN9__gnu_cxx17__normal_iteratorIPS9_SB_EEDpOT_ W
_ZNSt6vectorISt8weak_ptrIN9libcamera6CameraEESaIS3_EE17_M_realloc_insertIJS3_EEEvN9__gnu_cxx17__normal_iteratorIPS3_S5_EEDpOT_ W
_ZNSt6vectorISt8weak_ptrIN9libcamera6CameraEESaIS3_EED1Ev W
_ZNSt6vectorISt8weak_ptrIN9libcamera6CameraEESaIS3_EED2Ev W
_ZNSt6vectorItSaItEE17_M_realloc_insertIJRKtEEEvN9__gnu_cxx17__normal_iteratorIPtS1_EEDpOT_ W
_ZNSt7__cxx1110_List_baseIN9libcamera20DeviceEnumeratorUdev15MediaDeviceDepsESaIS3_EE8_M_clearEv W
_ZNSt7__cxx1111basic_regexIcNS_12regex_traitsIcEEED1Ev W
_ZNSt7__cxx1111basic_regexIcNS_12regex_traitsIcEEED2Ev W
_ZNSt7__cxx1112basic_stringIcSt11char_traitsIcESaIcEEC1IS3_EEPKcRKS3_ W
_ZNSt7__cxx1112basic_stringIcSt11char_traitsIcESaIcEEC2IS3_EEPKcRKS3_ W
_ZNSt8__detail15_BracketMatcherINSt7__cxx1112regex_traitsIcEELb0ELb0EE8_M_readyEv W
_ZNSt8__detail15_BracketMatcherINSt7__cxx1112regex_traitsIcEELb0ELb0EED1Ev W
_ZNSt8__detail15_BracketMatcherINSt7__cxx1112regex_traitsIcEELb0ELb0EED2Ev W
_ZNSt8__detail15_BracketMatcherINSt7__cxx1112regex_traitsIcEELb0ELb1EE13_M_make_rangeEcc W
_ZNSt8__detail15_BracketMatcherINSt7__cxx1112regex_traitsIcEELb0ELb1EE8_M_readyEv W
_ZNSt8__detail15_BracketMatcherINSt7__cxx1112regex_traitsIcEELb0ELb1EED1Ev W
_ZNSt8__detail15_BracketMatcherINSt7__cxx1112regex_traitsIcEELb0ELb1EED2Ev W
_ZNSt8__detail15_BracketMatcherINSt7__cxx1112regex_traitsIcEELb1ELb0EE8_M_readyEv W
_ZNSt8__detail15_BracketMatcherINSt7__cxx1112regex_traitsIcEELb1ELb0EED1Ev W
_ZNSt8__detail15_BracketMatcherINSt7__cxx1112regex_traitsIcEELb1ELb0EED2Ev W
_ZNSt8__detail15_BracketMatcherINSt7__cxx1112regex_traitsIcEELb1ELb1EE13_M_make_rangeEcc W
_ZNSt8__detail15_BracketMatcherINSt7__cxx1112regex_traitsIcEELb1ELb1EE8_M_readyEv W
_ZNSt8__detail15_BracketMatcherINSt7__cxx1112regex_traitsIcEELb1ELb1EED1Ev W
_ZNSt8__detail15_BracketMatcherINSt7__cxx1112regex_traitsIcEELb1ELb1EED2Ev W
_ZNSt8__detail22__from_chars_pow2_baseILb0EjEEbRPKcS2_RT0_i W
_ZNSt8__detail31__from_chars_alnum_to_val_tableILb0EE5valueE u
_ZNSt8__detail4_NFAINSt7__cxx1112regex_traitsIcEEE15_M_insert_dummyEv W
_ZNSt8__detail4_NFAINSt7__cxx1112regex_traitsIcEEE15_M_insert_stateENS_6_StateIcEE W
_ZNSt8__detail4_NFAINSt7__cxx1112regex_traitsIcEEE16_M_insert_repeatEllb W
_ZNSt8__detail4_NFAINSt7__cxx1112regex_traitsIcEEE17_M_insert_backrefEm W
_ZNSt8__detail4_NFAINSt7__cxx1112regex_traitsIcEEE17_M_insert_matcherESt8functionIFbcEE W
_ZNSt8__detail4_NFAINSt7__cxx1112regex_traitsIcEEE21_M_insert_subexpr_endEv W
_ZNSt8__detail4_NFAINSt7__cxx1112regex_traitsIcEEE23_M_insert_subexpr_beginEv W
_ZNSt8__detail6_StateIcED1Ev W
_ZNSt8__detail6_StateIcED2Ev W
_ZNSt8__detail8_ScannerIcE10_M_advanceEv W
_ZNSt8__detail8_ScannerIcE12_M_eat_classEc W
_ZNSt8__detail8_ScannerIcE14_M_scan_normalEv W
_ZNSt8__detail8_ScannerIcE16_M_scan_in_braceEv W
_ZNSt8__detail8_ScannerIcE17_M_eat_escape_awkEv W
_ZNSt8__detail8_ScannerIcE18_M_eat_escape_ecmaEv W
_ZNSt8__detail8_ScannerIcE18_M_scan_in_bracketEv W
_ZNSt8__detail8_ScannerIcE19_M_eat_escape_posixEv W
_ZNSt8__detail8_ScannerIcEC1EPKcS3_NSt15regex_constants18syntax_option_typeESt6locale W
_ZNSt8__detail8_ScannerIcEC2EPKcS3_NSt15regex_constants18syntax_option_typeESt6locale W
_ZNSt8__detail9_CompilerINSt7__cxx1112regex_traitsIcEEE11_M_try_charEv W
_ZNSt8__detail9_CompilerINSt7__cxx1112regex_traitsIcEEE12_M_assertionEv W
_ZNSt8__detail9_CompilerINSt7__cxx1112regex_traitsIcEEE13_M_quantifierEv W
_ZNSt8__detail9_CompilerINSt7__cxx1112regex_traitsIcEEE14_M_alternativeEv W
_ZNSt8__detail9_CompilerINSt7__cxx1112regex_traitsIcEEE14_M_disjunctionEv W
_ZNSt8__detail9_CompilerINSt7__cxx1112regex_traitsIcEEE16_M_cur_int_valueEi W
_ZNSt8__detail9_CompilerINSt7__cxx1112regex_traitsIcEEE18_M_expression_termILb0ELb0EEEbRNS4_13_BracketStateERNS_15_BracketMatcherIS3_XT_EXT0_EEE W
_ZNSt8__detail9_CompilerINSt7__cxx1112regex_traitsIcEEE18_M_expression_termILb0ELb1EEEbRNS4_13_BracketStateERNS_15_BracketMatcherIS3_XT_EXT0_EEE W
_ZNSt8__detail9_CompilerINSt7__cxx1112regex_traitsIcEEE18_M_expression_termILb1ELb0EEEbRNS4_13_BracketStateERNS_15_BracketMatcherIS3_XT_EXT0_EEE W
_ZNSt8__detail9_CompilerINSt7__cxx1112regex_traitsIcEEE18_M_expression_termILb1ELb1EEEbRNS4_13_BracketStateERNS_15_BracketMatcherIS3_XT_EXT0_EEE W
_ZNSt8__detail9_CompilerINSt7__cxx1112regex_traitsIcEEE21_M_bracket_expressionEv W
_ZNSt8__detail9_CompilerINSt7__cxx1112regex_traitsIcEEE22_M_insert_char_matcherILb0ELb0EEEvv W
_ZNSt8__detail9_CompilerINSt7__cxx1112regex_traitsIcEEE22_M_insert_char_matcherILb0ELb1EEEvv W
_ZNSt8__detail9_CompilerINSt7__cxx1112regex_traitsIcEEE22_M_insert_char_matcherILb1ELb0EEEvv W
_ZNSt8__detail9_CompilerINSt7__cxx1112regex_traitsIcEEE22_M_insert_char_matcherILb1ELb1EEEvv W
_ZNSt8__detail9_CompilerINSt7__cxx1112regex_traitsIcEEE25_M_insert_bracket_matcherILb0ELb0EEEvb W
_ZNSt8__detail9_CompilerINSt7__cxx1112regex_traitsIcEEE25_M_insert_bracket_matcherILb0ELb1EEEvb W
_ZNSt8__detail9_CompilerINSt7__cxx1112regex_traitsIcEEE25_M_insert_bracket_matcherILb1ELb0EEEvb W
_ZNSt8__detail9_CompilerINSt7__cxx1112regex_traitsIcEEE25_M_insert_bracket_matcherILb1ELb1EEEvb W
_ZNSt8__detail9_CompilerINSt7__cxx1112regex_traitsIcEEE26_M_insert_any_matcher_ecmaILb0ELb0EEEvv W
_ZNSt8__detail9_CompilerINSt7__cxx1112regex_traitsIcEEE26_M_insert_any_matcher_ecmaILb0ELb1EEEvv W
_ZNSt8__detail9_CompilerINSt7__cxx1112regex_traitsIcEEE26_M_insert_any_matcher_ecmaILb1ELb0EEEvv W
_ZNSt8__detail9_CompilerINSt7__cxx1112regex_traitsIcEEE26_M_insert_any_matcher_ecmaILb1ELb1EEEvv W
_ZNSt8__detail9_CompilerINSt7__cxx1112regex_traitsIcEEE27_M_insert_any_matcher_posixILb0ELb0EEEvv W
_ZNSt8__detail9_CompilerINSt7__cxx1112regex_traitsIcEEE27_M_insert_any_matcher_posixILb0ELb1EEEvv W
_ZNSt8__detail9_CompilerINSt7__cxx1112regex_traitsIcEEE27_M_insert_any_matcher_posixILb1ELb0EEEvv W
_ZNSt8__detail9_CompilerINSt7__cxx1112regex_traitsIcEEE27_M_insert_any_matcher_posixILb1ELb1EEEvv W
_ZNSt8__detail9_CompilerINSt7__cxx1112regex_traitsIcEEE33_M_insert_character_class_matcherILb0ELb0EEEvv W
_ZNSt8__detail9_CompilerINSt7__cxx1112regex_traitsIcEEE33_M_insert_character_class_matcherILb0ELb1EEEvv W
_ZNSt8__detail9_CompilerINSt7__cxx1112regex_traitsIcEEE33_M_insert_character_class_matcherILb1ELb0EEEvv W
_ZNSt8__detail9_CompilerINSt7__cxx1112regex_traitsIcEEE33_M_insert_character_class_matcherILb1ELb1EEEvv W
_ZNSt8__detail9_CompilerINSt7__cxx1112regex_traitsIcEEE6_M_popEv W
_ZNSt8__detail9_CompilerINSt7__cxx1112regex_traitsIcEEE7_M_atomEv W
_ZNSt8__detail9_CompilerINSt7__cxx1112regex_traitsIcEEEC1EPKcS6_RKSt6localeNSt15regex_constants18syntax_option_typeE W
_ZNSt8__detail9_CompilerINSt7__cxx1112regex_traitsIcEEEC2EPKcS6_RKSt6localeNSt15regex_constants18syntax_option_typeE W
_ZNSt8__detail9_ExecutorIN9__gnu_cxx17__normal_iteratorIPKcNSt7__cxx1112basic_stringIcSt11char_traitsIcESaIcEEEEESaINS5_9sub_matchISB_EEENS5_12regex_traitsIcEELb0EE12_M_lookaheadEl W
_ZNSt8__detail9_ExecutorIN9__gnu_cxx17__normal_iteratorIPKcNSt7__cxx1112basic_stringIcSt11char_traitsIcESaIcEEEEESaINS5_9sub_matchISB_EEENS5_12regex_traitsIcEELb0EE16_M_rep_once_moreENSH_11_Match_modeEl W
_ZNSt8__detail9_ExecutorIN9__gnu_cxx17__normal_iteratorIPKcNSt7__cxx1112basic_stringIcSt11char_traitsIcESaIcEEEEESaINS5_9sub_matchISB_EEENS5_12regex_traitsIcEELb0EE17_M_handle_backrefENSH_11_Match_modeEl W
_ZNSt8__detail9_ExecutorIN9__gnu_cxx17__normal_iteratorIPKcNSt7__cxx1112basic_stringIcSt11char_traitsIcESaIcEEEEESaINS5_9sub_matchISB_EEENS5_12regex_traitsIcEELb0EE21_M_handle_alternativeENSH_11_Match_modeEl W
_ZNSt8__detail9_ExecutorIN9__gnu_cxx17__normal_iteratorIPKcNSt7__cxx1112basic_stringIcSt11char_traitsIcESaIcEEEEESaINS5_9sub_matchISB_EEENS5_12regex_traitsIcEELb0EE23_M_handle_word_boundaryENSH_11_Match_modeEl W
_ZNSt8__detail9_ExecutorIN9__gnu_cxx17__normal_iteratorIPKcNSt7__cxx1112basic_stringIcSt11char_traitsIcESaIcEEEEESaINS5_9sub_matchISB_EEENS5_12regex_traitsIcEELb0EE6_M_dfsENSH_11_Match_modeEl W
_ZNSt8__detail9_ExecutorIN9__gnu_cxx17__normal_iteratorIPKcNSt7__cxx1112basic_stringIcSt11char_traitsIcESaIcEEEEESaINS5_9sub_matchISB_EEENS5_12regex_traitsIcEELb0EED1Ev W
_ZNSt8__detail9_ExecutorIN9__gnu_cxx17__normal_iteratorIPKcNSt7__cxx1112basic_stringIcSt11char_traitsIcESaIcEEEEESaINS5_9sub_matchISB_EEENS5_12regex_traitsIcEELb0EED2Ev W
_ZNSt8__detail9_ExecutorIN9__gnu_cxx17__normal_iteratorIPKcNSt7__cxx1112basic_stringIcSt11char_traitsIcESaIcEEEEESaINS5_9sub_matchISB_EEENS5_12regex_traitsIcEELb1EE12_M_lookaheadEl W
_ZNSt8__detail9_ExecutorIN9__gnu_cxx17__normal_iteratorIPKcNSt7__cxx1112basic_stringIcSt11char_traitsIcESaIcEEEEESaINS5_9sub_matchISB_EEENS5_12regex_traitsIcEELb1EE16_M_rep_once_moreENSH_11_Match_modeEl W
_ZNSt8__detail9_ExecutorIN9__gnu_cxx17__normal_iteratorIPKcNSt7__cxx1112basic_stringIcSt11char_traitsIcESaIcEEEEESaINS5_9sub_matchISB_EEENS5_12regex_traitsIcEELb1EE6_M_dfsENSH_11_Match_modeEl W
_ZNSt8__detail9_Map_baseIjSt4pairIKjN9libcamera12ControlValueEESaIS5_ENS_10_Select1stESt8equal_toIjESt4hashIjENS_18_Mod_range_hashingENS_20_Default_ranged_hashENS_20_Prime_rehash_policyENS_17_Hashtable_traitsILb0ELb0ELb1EEELb1EEixERS2_ W
_ZNSt8__detail9_Map_baseIjSt4pairIKjPKN9libcamera9ControlIdEESaIS7_ENS_10_Select1stESt8equal_toIjESt4hashIjENS_18_Mod_range_hashingENS_20_Default_ranged_hashENS_20_Prime_rehash_policyENS_17_Hashtable_traitsILb0ELb0ELb1EEELb1EEixERS2_ W
_ZNSt8__detail9_Map_baseIPKN9libcamera3RPi6StreamESt4pairIKS5_PNS1_11FrameBufferEESaISA_ENS_10_Select1stESt8equal_toIS5_ESt4hashIS5_ENS_18_Mod_range_hashingENS_20_Default_ranged_hashENS_20_Prime_rehash_policyENS_17_Hashtable_traitsILb0ELb0ELb1EEELb1EEixEOS5_ W
_ZNSt8__detail9_Map_baseIPKN9libcamera9ControlIdESt4pairIKS4_NS1_11ControlInfoEESaIS8_ENS_10_Select1stESt8equal_toIS4_ESt4hashIS4_ENS_18_Mod_range_hashingENS_20_Default_ranged_hashENS_20_Prime_rehash_policyENS_17_Hashtable_traitsILb0ELb0ELb1EEELb1EEixEOS4_ W
_ZNSt8__detail9_Map_baseIPKN9libcamera9ControlIdESt4pairIKS4_NS1_15DelayedControls13ControlParamsEESaIS9_ENS_10_Select1stESt8equal_toIS4_ESt4hashIS4_ENS_18_Mod_range_hashingENS_20_Default_ranged_hashENS_20_Prime_rehash_policyENS_17_Hashtable_traitsILb0ELb0ELb1EEELb1EEixERS6_ W
_ZNSt8__detail9_Map_baseIPKN9libcamera9ControlIdESt4pairIKS4_NS1_15DelayedControls17ControlRingBufferEESaIS9_ENS_10_Select1stESt8equal_toIS4_ESt4hashIS4_ENS_18_Mod_range_hashingENS_20_Default_ranged_hashENS_20_Prime_rehash_policyENS_17_Hashtable_traitsILb0ELb0ELb1EEELb1EEixERS6_ W
_ZNSt8__detail9_Map_baseIPKN9libcamera9ControlIdESt4pairIKS4_NS1_3RPi15DelayedControls10RingBufferINS8_4InfoEEEESaISC_ENS_10_Select1stESt8equal_toIS4_ESt4hashIS4_ENS_18_Mod_range_hashingENS_20_Default_ranged_hashENS_20_Prime_rehash_policyENS_17_Hashtable_traitsILb0ELb0ELb1EEELb1EEixERS6_ W
_ZNSt8__detail9_Map_baseIPKN9libcamera9ControlIdESt4pairIKS4_NS1_3RPi15DelayedControls13ControlParamsEESaISA_ENS_10_Select1stESt8equal_toIS4_ESt4hashIS4_ENS_18_Mod_range_hashingENS_20_Default_ranged_hashENS_20_Prime_rehash_policyENS_17_Hashtable_traitsILb0ELb0ELb1EEELb1EEixERS6_ W
_ZNSt8__detail9_StateSeqINSt7__cxx1112regex_traitsIcEEE8_M_cloneEv W
_ZNSt8_Rb_treeIjSt4pairIKjN9libcamera17IPCPipeUnixSocket8CallDataEESt10_Select1stIS5_ESt4lessIjESaIS5_EE16_M_insert_uniqueIS5_EES0_ISt17_Rb_tree_iteratorIS5_EbEOT_ W
_ZNSt8_Rb_treeIjSt4pairIKjSt6vectorIN9libcamera4SizeESaIS4_EEESt10_Select1stIS7_ESt4lessIjESaIS7_EE22_M_emplace_hint_uniqueIJRS1_S6_EEESt17_Rb_tree_iteratorIS7_ESt23_Rb_tree_const_iteratorIS7_EDpOT_ W
_ZNSt8_Rb_treeIjSt4pairIKjSt6vectorIN9libcamera9SizeRangeESaIS4_EEESt10_Select1stIS7_ESt4lessIjESaIS7_EE16_M_insert_uniqueIS7_EES0_ISt17_Rb_tree_iteratorIS7_EbEOT_ W
_ZNSt8_Rb_treeImmSt9_IdentityImESt4lessImESaImEE16_M_insert_uniqueIRKmEESt4pairISt17_Rb_tree_iteratorImEbEOT_ W
_ZNSt8_Rb_treeIN9libcamera11PixelFormatES1_St9_IdentityIS1_ESt4lessIS1_ESaIS1_EE16_M_insert_uniqueIRKS1_EESt4pairISt17_Rb_tree_iteratorIS1_EbEOT_ W
_ZNSt8_Rb_treeIN9libcamera11PixelFormatESt4pairIKS1_St6vectorINS0_9SizeRangeESaIS5_EEESt10_Select1stIS8_ESt4lessIS1_ESaIS8_EE10_Auto_nodeD1Ev W
_ZNSt8_Rb_treeIN9libcamera11PixelFormatESt4pairIKS1_St6vectorINS0_9SizeRangeESaIS5_EEESt10_Select1stIS8_ESt4lessIS1_ESaIS8_EE10_Auto_nodeD2Ev W
_ZNSt8_Rb_treeIN9libcamera11PixelFormatESt4pairIKS1_St6vectorINS0_9SizeRangeESaIS5_EEESt10_Select1stIS8_ESt4lessIS1_ESaIS8_EE29_M_get_insert_hint_unique_posESt23_Rb_tree_const_iteratorIS8_ERS3_ W
_ZNSt8_Rb_treeIN9libcamera15V4L2PixelFormatESt4pairIKS1_St6vectorINS0_9SizeRangeESaIS5_EEESt10_Select1stIS8_ESt4lessIS1_ESaIS8_EE22_M_emplace_hint_uniqueIJRS1_RS7_EEESt17_Rb_tree_iteratorIS8_ESt23_Rb_tree_const_iteratorIS8_EDpOT_ W
_ZNSt8_Rb_treeINSt7__cxx1112basic_stringIcSt11char_traitsIcESaIcEEESt4pairIKS5_iESt10_Select1stIS8_ESt4lessIS5_ESaIS8_EE24_M_get_insert_unique_posERS7_ W
_ZNSt8_Rb_treeINSt7__cxx1112basic_stringIcSt11char_traitsIcESaIcEEESt4pairIKS5_KN9libcamera22CameraSensorPropertiesEESt10_Select1stISB_ESt4lessIS5_ESaISB_EE24_M_get_insert_unique_posERS7_ W
_ZNSt8_Rb_treeINSt7__cxx1112basic_stringIcSt11char_traitsIcESaIcEEESt4pairIKS5_KN9libcamera22CameraSensorPropertiesEESt10_Select1stISB_ESt4lessIS5_ESaISB_EE29_M_get_insert_hint_unique_posESt23_Rb_tree_const_iteratorISB_ERS7_ W
_ZNSt8_Rb_treeINSt7__cxx1112basic_stringIcSt11char_traitsIcESaIcEEESt4pairIKS5_PN9libcamera10YamlObjectEESt10_Select1stISB_ESt4lessIvESaISB_EE22_M_emplace_hint_uniqueIJRS7_SA_EEESt17_Rb_tree_iteratorISB_ESt23_Rb_tree_const_iteratorISB_EDpOT_ W
_ZNSt8_Rb_treeINSt7__cxx1112basic_stringIcSt11char_traitsIcESaIcEEESt4pairIKS5_PN9libcamera10YamlObjectEESt10_Select1stISB_ESt4lessIvESaISB_EE24_M_get_insert_unique_posERS7_ W
_ZNSt8_Rb_treeINSt7__cxx1112basic_stringIcSt11char_traitsIcESaIcEEESt4pairIKS5_PN9libcamera10YamlObjectEESt10_Select1stISB_ESt4lessIvESaISB_EE29_M_get_insert_hint_unique_posESt23_Rb_tree_const_iteratorISB_ERS7_ W
_ZNSt8_Rb_treeIPKN9libcamera6StreamES3_St9_IdentityIS3_ESt4lessIS3_ESaIS3_EE16_M_insert_uniqueIRKS3_EESt4pairISt17_Rb_tree_iteratorIS3_EbEOT_ W
_ZNSt8_Rb_treeIPKN9libcamera6StreamESt4pairIKS3_St10unique_ptrINS0_16V4L2M2MConverter13V4L2M2MStreamESt14default_deleteIS8_EEESt10_Select1stISC_ESt4lessIS3_ESaISC_EE22_M_emplace_hint_uniqueIJPS1_SB_EEESt17_Rb_tree_iteratorISC_ESt23_Rb_tree_const_iteratorISC_EDpOT_ W
_ZNSt8_Rb_treeIPN9libcamera6StreamES2_St9_IdentityIS2_ESt4lessIS2_ESaIS2_EE16_M_insert_uniqueIS2_EESt4pairISt17_Rb_tree_iteratorIS2_EbEOT_ W
_ZSt13__heap_selectIN9__gnu_cxx17__normal_iteratorIPNSt7__cxx1112basic_stringIcSt11char_traitsIcESaIcEEESt6vectorIS7_SaIS7_EEEENS0_5__ops15_Iter_less_iterEEvT_SF_SF_T0_ W
_ZSt16__do_uninit_copyIN9__gnu_cxx17__normal_iteratorIPKNSt7__cxx1112basic_stringIcSt11char_traitsIcESaIcEEESt6vectorIS7_SaIS7_EEEEPS7_ET0_T_SG_SF_ W
_ZSt16__do_uninit_copyIN9__gnu_cxx17__normal_iteratorIPN9libcamera8SharedFDESt6vectorIS3_SaIS3_EEEES4_ET0_T_SA_S9_ W
_ZSt16__do_uninit_copyIPKN9libcamera8SharedFDEPS1_ET0_T_S6_S5_ W
_ZSt19__throw_regex_errorNSt15regex_constants10error_typeEPKc W
_ZSt26__throw_bad_variant_accessPKc W
_ZSt27__throw_bad_optional_accessv W
_ZThn104_N9libcamera3ipa4soft12IPAProxySoftD0Ev T
_ZThn104_N9libcamera3ipa4soft12IPAProxySoftD1Ev T
_ZThn104_N9libcamera3ipa6rkisp114IPAProxyRkISP1D0Ev T
_ZThn104_N9libcamera3ipa6rkisp114IPAProxyRkISP1D1Ev T
_ZThn104_N9libcamera3ipa8mali_c5515IPAProxyMaliC55D0Ev T
_ZThn104_N9libcamera3ipa8mali_c5515IPAProxyMaliC55D1Ev T
_ZThn16_N9libcamera13CameraManager7Private3runEv T
_ZThn16_N9libcamera13CameraManager7PrivateD0Ev W
_ZThn16_N9libcamera13CameraManager7PrivateD1Ev W
_ZThn200_N9libcamera3ipa3RPi11IPAProxyRPiD0Ev T
_ZThn200_N9libcamera3ipa3RPi11IPAProxyRPiD1Ev T
_ZThn24_N9libcamera3ipa3RPi11IPAProxyRPi10mapBuffersERKSt6vectorINS_9IPABufferESaIS4_EE T
_ZThn24_N9libcamera3ipa3RPi11IPAProxyRPi10prepareIspERKNS1_13PrepareParamsE T
_ZThn24_N9libcamera3ipa3RPi11IPAProxyRPi12processStatsERKNS1_13ProcessParamsE T
_ZThn24_N9libcamera3ipa3RPi11IPAProxyRPi12unmapBuffersERKSt6vectorIjSaIjEE T
_ZThn24_N9libcamera3ipa3RPi11IPAProxyRPi4initERKNS_11IPASettingsERKNS1_10InitParamsEPNS1_10InitResultE T
_ZThn24_N9libcamera3ipa3RPi11IPAProxyRPi4stopEv T
_ZThn24_N9libcamera3ipa3RPi11IPAProxyRPi5startERKNS_11ControlListEPNS1_11StartResultE T
_ZThn24_N9libcamera3ipa3RPi11IPAProxyRPi9configureERKNS_19IPACameraSensorInfoERKNS1_12ConfigParamsEPNS1_12ConfigResultE T
_ZThn24_N9libcamera3ipa3RPi11IPAProxyRPiD0Ev T
_ZThn24_N9libcamera3ipa3RPi11IPAProxyRPiD1Ev T
_ZThn24_N9libcamera3ipa4soft12IPAProxySoft12processStatsEjjRKNS_11ControlListE T
_ZThn24_N9libcamera3ipa4soft12IPAProxySoft12queueRequestEjRKNS_11ControlListE T
_ZThn24_N9libcamera3ipa4soft12IPAProxySoft13computeParamsEj T
_ZThn24_N9libcamera3ipa4soft12IPAProxySoft4initERKNS_11IPASettingsERKNS_8SharedFDES8_RKNS_19IPACameraSensorInfoERKNS_14ControlInfoMapEPSC_Pb T
_ZThn24_N9libcamera3ipa4soft12IPAProxySoft4stopEv T
_ZThn24_N9libcamera3ipa4soft12IPAProxySoft5startEv T
_ZThn24_N9libcamera3ipa4soft12IPAProxySoft9configureERKNS1_13IPAConfigInfoE T
_ZThn24_N9libcamera3ipa4soft12IPAProxySoftD0Ev T
_ZThn24_N9libcamera3ipa4soft12IPAProxySoftD1Ev T
_ZThn24_N9libcamera3ipa6rkisp114IPAProxyRkISP110mapBuffersERKSt6vectorINS_9IPABufferESaIS4_EE T
_ZThn24_N9libcamera3ipa6rkisp114IPAProxyRkISP112processStatsEjjRKNS_11ControlListE T
_ZThn24_N9libcamera3ipa6rkisp114IPAProxyRkISP112queueRequestEjRKNS_11ControlListE T
_ZThn24_N9libcamera3ipa6rkisp114IPAProxyRkISP112unmapBuffersERKSt6vectorIjSaIjEE T
_ZThn24_N9libcamera3ipa6rkisp114IPAProxyRkISP113computeParamsEjj T
_ZThn24_N9libcamera3ipa6rkisp114IPAProxyRkISP14initERKNS_11IPASettingsEjRKNS_19IPACameraSensorInfoERKNS_14ControlInfoMapEPS9_ T
_ZThn24_N9libcamera3ipa6rkisp114IPAProxyRkISP14stopEv T
_ZThn24_N9libcamera3ipa6rkisp114IPAProxyRkISP15startEv T
_ZThn24_N9libcamera3ipa6rkisp114IPAProxyRkISP19configureERKNS1_13IPAConfigInfoERKSt3mapIjNS_9IPAStreamESt4lessIjESaISt4pairIKjS7_EEEPNS_14ControlInfoMapE T
_ZThn24_N9libcamera3ipa6rkisp114IPAProxyRkISP1D0Ev T
_ZThn24_N9libcamera3ipa6rkisp114IPAProxyRkISP1D1Ev T
_ZThn24_N9libcamera3ipa8mali_c5515IPAProxyMaliC5510fillParamsEjj T
_ZThn24_N9libcamera3ipa8mali_c5515IPAProxyMaliC5510mapBuffersERKSt6vectorINS_9IPABufferESaIS4_EEb T
_ZThn24_N9libcamera3ipa8mali_c5515IPAProxyMaliC5512processStatsEjjRKNS_11ControlListE T
_ZThn24_N9libcamera3ipa8mali_c5515IPAProxyMaliC5512queueRequestEjRKNS_11ControlListE T
_ZThn24_N9libcamera3ipa8mali_c5515IPAProxyMaliC5512unmapBuffersERKSt6vectorINS_9IPABufferESaIS4_EE T
_ZThn24_N9libcamera3ipa8mali_c5515IPAProxyMaliC554initERKNS_11IPASettingsERKNS1_13IPAConfigInfoEPNS_14ControlInfoMapE T
_ZThn24_N9libcamera3ipa8mali_c5515IPAProxyMaliC554stopEv T
_ZThn24_N9libcamera3ipa8mali_c5515IPAProxyMaliC555startEv T
_ZThn24_N9libcamera3ipa8mali_c5515IPAProxyMaliC559configureERKNS1_13IPAConfigInfoEhPNS_14ControlInfoMapE T
_ZThn24_N9libcamera3ipa8mali_c5515IPAProxyMaliC55D0Ev T
_ZThn24_N9libcamera3ipa8mali_c5515IPAProxyMaliC55D1Ev T
_ZThn56_N9libcamera10DebayerCpuD0Ev T
_ZThn56_N9libcamera10DebayerCpuD1Ev T
_ZThn8_N9libcamera15CameraSensorRawD0Ev T
_ZThn8_N9libcamera15CameraSensorRawD1Ev T
_ZThn8_N9libcamera18CameraSensorLegacyD0Ev T
_ZThn8_N9libcamera18CameraSensorLegacyD1Ev T
_ZThn8_NK9libcamera15CameraSensorRaw9logPrefixB5cxx11Ev T
_ZThn8_NK9libcamera18CameraSensorLegacy9logPrefixB5cxx11Ev T
_ZTIN9libcamera10CameraLensE V
_ZTIN9libcamera10DebayerCpuE V
_ZTIN9libcamera10ExtensibleE V
_ZTIN9libcamera10V4L2DeviceE V
_ZTIN9libcamera11FrameBuffer7PrivateE V
_ZTIN9libcamera11FrameBufferE V
_ZTIN9libcamera11MediaDeviceE V
_ZTIN9libcamera11MediaEntityE V
_ZTIN9libcamera11MediaObjectE V
_ZTIN9libcamera11SoftwareIspE V
_ZTIN9libcamera12CameraSensorE V
_ZTIN9libcamera12IPAInterfaceE V
_ZTIN9libcamera13CameraManager7PrivateE V
_ZTIN9libcamera13CameraManagerE V
_ZTIN9libcamera13ISICameraDataE V
_ZTIN9libcamera13UVCCameraDataE V
_ZTIN9libcamera13V4L2SubdeviceE V
_ZTIN9libcamera13Vc4CameraDataE V
_ZTIN9libcamera14PiSPCameraDataE V
_ZTIN9libcamera15BoundMethodArgsIbJPNS_6CameraEEEE V
_ZTIN9libcamera15BoundMethodArgsIiJEEE V
_ZTIN9libcamera15BoundMethodArgsIiJPNS_6CameraEPKNS_11ControlListEEEE V
_ZTIN9libcamera15BoundMethodArgsIiJPNS_6CameraEPNS_19CameraConfigurationEEEE V
_ZTIN9libcamera15BoundMethodArgsIiJPNS_6CameraEPNS_6StreamEPSt6vectorISt10unique_ptrINS_11FrameBufferESt14default_deleteIS7_EESaISA_EEEEE V
_ZTIN9libcamera15BoundMethodArgsIvJEEE V
_ZTIN9libcamera15BoundMethodArgsIvJjEEE V
_ZTIN9libcamera15BoundMethodArgsIvJjjEEE V
_ZTIN9libcamera15BoundMethodArgsIvJjjRKNS_11ControlListEEEE V
_ZTIN9libcamera15BoundMethodArgsIvJjPNS_11FrameBufferES2_NS_13DebayerParamsEEEE V
_ZTIN9libcamera15BoundMethodArgsIvJjRKNS_11ControlListEEEE V
_ZTIN9libcamera15BoundMethodArgsIvJPNS_11FrameBufferEEEE V
_ZTIN9libcamera15BoundMethodArgsIvJPNS_6CameraEEEE V
_ZTIN9libcamera15BoundMethodArgsIvJPNS_7RequestEEEE V
_ZTIN9libcamera15BoundMethodArgsIvJRKNS_10IPCMessageEEEE V
_ZTIN9libcamera15BoundMethodArgsIvJRKNS_11ControlListEEEE V
_ZTIN9libcamera15BoundMethodArgsIvJRKNS_11ControlListEjEEE V
_ZTIN9libcamera15BoundMethodArgsIvJRKNS_11ControlListEPNS_3ipa3RPi11StartResultEEEE V
_ZTIN9libcamera15BoundMethodArgsIvJRKNS_3ipa3RPi13PrepareParamsEEEE V
_ZTIN9libcamera15BoundMethodArgsIvJRKNS_3ipa3RPi13ProcessParamsEEEE V
_ZTIN9libcamera15BoundMethodArgsIvJRKNS_3ipa3RPi9BufferIdsEbEEE V
_ZTIN9libcamera15BoundMethodArgsIvJRKNS_3ipa3RPi9BufferIdsEEEE V
_ZTIN9libcamera15BoundMethodBaseE V
_ZTIN9libcamera15BoundMethodPackIbJPNS_6CameraEEEE V
_ZTIN9libcamera15BoundMethodPackIiJEEE V
_ZTIN9libcamera15BoundMethodPackIiJPNS_6CameraEPKNS_11ControlListEEEE V
_ZTIN9libcamera15BoundMethodPackIiJPNS_6CameraEPNS_19CameraConfigurationEEEE V
_ZTIN9libcamera15BoundMethodPackIiJPNS_6CameraEPNS_6StreamEPSt6vectorISt10unique_ptrINS_11FrameBufferESt14default_deleteIS7_EESaISA_EEEEE V
_ZTIN9libcamera15BoundMethodPackIvJEEE V
_ZTIN9libcamera15BoundMethodPackIvJjEEE V
_ZTIN9libcamera15BoundMethodPackIvJjjEEE V
_ZTIN9libcamera15BoundMethodPackIvJjjRKNS_11ControlListEEEE V
_ZTIN9libcamera15BoundMethodPackIvJjPNS_11FrameBufferES2_NS_13DebayerParamsEEEE V
_ZTIN9libcamera15BoundMethodPackIvJjRKNS_11ControlListEEEE V
_ZTIN9libcamera15BoundMethodPackIvJPNS_11FrameBufferEEEE V
_ZTIN9libcamera15BoundMethodPackIvJPNS_6CameraEEEE V
_ZTIN9libcamera15BoundMethodPackIvJPNS_7RequestEEEE V
_ZTIN9libcamera15BoundMethodPackIvJRKNS_10IPCMessageEEEE V
_ZTIN9libcamera15BoundMethodPackIvJRKNS_11ControlListEEEE V
_ZTIN9libcamera15BoundMethodPackIvJRKNS_11ControlListEjEEE V
_ZTIN9libcamera15BoundMethodPackIvJRKNS_11ControlListEPNS_3ipa3RPi11StartResultEEEE V
_ZTIN9libcamera15BoundMethodPackIvJRKNS_3ipa3RPi13PrepareParamsEEEE V
_ZTIN9libcamera15BoundMethodPackIvJRKNS_3ipa3RPi13ProcessParamsEEEE V
_ZTIN9libcamera15BoundMethodPackIvJRKNS_3ipa3RPi9BufferIdsEbEEE V
_ZTIN9libcamera15BoundMethodPackIvJRKNS_3ipa3RPi9BufferIdsEEEE V
_ZTIN9libcamera15CameraSensorRawE V
_ZTIN9libcamera15PipelineHandlerE V
_ZTIN9libcamera15SharedMemObjectIN7libpisp7BackEndEvEE V
_ZTIN9libcamera15SharedMemObjectIN7libpisp8FrontEndEvEE V
_ZTIN9libcamera15SharedMemObjectINS_10SwIspStatsEvEE V
_ZTIN9libcamera15SharedMemObjectINS_13DebayerParamsEvEE V
_ZTIN9libcamera15V4L2VideoDeviceE V
_ZTIN9libcamera16ControlValidatorE V
_ZTIN9libcamera16ConverterFactoryINS_16V4L2M2MConverterEEE V
_ZTIN9libcamera16DeviceEnumeratorE V
_ZTIN9libcamera16RkISP1CameraDataE V
_ZTIN9libcamera16SimpleCameraDataE V
_ZTIN9libcamera16V4L2M2MConverter13V4L2M2MStreamE V
_ZTIN9libcamera16V4L2M2MConverterE V
_ZTIN9libcamera17BoundMethodMemberINS_10DebayerCpuEvJjPNS_11FrameBufferES3_NS_13DebayerParamsEEEE V
_ZTIN9libcamera17BoundMethodMemberINS_10V4L2DeviceEvJEEE V
_ZTIN9libcamera17BoundMethodMemberINS_11SoftwareIspEvJEEE V
_ZTIN9libcamera17BoundMethodMemberINS_11SoftwareIspEvJjjEEE V
_ZTIN9libcamera17BoundMethodMemberINS_11SoftwareIspEvJPNS_11FrameBufferEEEE V
_ZTIN9libcamera17BoundMethodMemberINS_11SoftwareIspEvJRKNS_11ControlListEEEE V
_ZTIN9libcamera17BoundMethodMemberINS_13CameraManager7PrivateEvJEEE V
_ZTIN9libcamera17BoundMethodMemberINS_13IPCUnixSocketEvJEEE V
_ZTIN9libcamera17BoundMethodMemberINS_13UVCCameraDataEvJPNS_11FrameBufferEEEE V
_ZTIN9libcamera17BoundMethodMemberINS_13Vc4CameraDataEvJjEEE V
_ZTIN9libcamera17BoundMethodMemberINS_13Vc4CameraDataEvJPNS_11FrameBufferEEEE V
_ZTIN9libcamera17BoundMethodMemberINS_13Vc4CameraDataEvJRKNS_11ControlListEEEE V
_ZTIN9libcamera17BoundMethodMemberINS_13Vc4CameraDataEvJRKNS_3ipa3RPi9BufferIdsEbEEE V
_ZTIN9libcamera17BoundMethodMemberINS_13Vc4CameraDataEvJRKNS_3ipa3RPi9BufferIdsEEEE V
_ZTIN9libcamera17BoundMethodMemberINS_14PiSPCameraDataEvJjEEE V
_ZTIN9libcamera17BoundMethodMemberINS_14PiSPCameraDataEvJPNS_11FrameBufferEEEE V
_ZTIN9libcamera17BoundMethodMemberINS_14PiSPCameraDataEvJRKNS_3ipa3RPi9BufferIdsEbEEE V
_ZTIN9libcamera17BoundMethodMemberINS_14PiSPCameraDataEvJRKNS_3ipa3RPi9BufferIdsEEEE V
_ZTIN9libcamera17BoundMethodMemberINS_14ProcessManagerEvJEEE V
_ZTIN9libcamera17BoundMethodMemberINS_15DelayedControlsEvJjEEE V
_ZTIN9libcamera17BoundMethodMemberINS_15PipelineHandlerEbJPNS_6CameraEEEE V
_ZTIN9libcamera17BoundMethodMemberINS_15PipelineHandlerEiJPNS_6CameraEPKNS_11ControlListEEEE V
_ZTIN9libcamera17BoundMethodMemberINS_15PipelineHandlerEiJPNS_6CameraEPNS_19CameraConfigurationEEEE V
_ZTIN9libcamera17BoundMethodMemberINS_15PipelineHandlerEiJPNS_6CameraEPNS_6StreamEPSt6vectorISt10unique_ptrINS_11FrameBufferESt14default_deleteIS8_EESaISB_EEEEE V
_ZTIN9libcamera17BoundMethodMemberINS_15PipelineHandlerEvJEEE V
_ZTIN9libcamera17BoundMethodMemberINS_15PipelineHandlerEvJPNS_6CameraEEEE V
_ZTIN9libcamera17BoundMethodMemberINS_15PipelineHandlerEvJPNS_7RequestEEEE V
_ZTIN9libcamera17BoundMethodMemberINS_15V4L2VideoDeviceEvJEEE V
_ZTIN9libcamera17BoundMethodMemberINS_16RkISP1CameraDataEvJjjEEE V
_ZTIN9libcamera17BoundMethodMemberINS_16RkISP1CameraDataEvJjRKNS_11ControlListEEEE V
_ZTIN9libcamera17BoundMethodMemberINS_16SimpleCameraDataEvJjjEEE V
_ZTIN9libcamera17BoundMethodMemberINS_16SimpleCameraDataEvJjRKNS_11ControlListEEEE V
_ZTIN9libcamera17BoundMethodMemberINS_16SimpleCameraDataEvJPNS_11FrameBufferEEEE V
_ZTIN9libcamera17BoundMethodMemberINS_16SimpleCameraDataEvJRKNS_11ControlListEEEE V
_ZTIN9libcamera17BoundMethodMemberINS_16V4L2M2MConverter13V4L2M2MStreamEvJPNS_11FrameBufferEEEE V
_ZTIN9libcamera17BoundMethodMemberINS_17IPCPipeUnixSocketEvJEEE V
_ZTIN9libcamera17BoundMethodMemberINS_17MaliC55CameraDataEvJRKNS_11ControlListEEEE V
_ZTIN9libcamera17BoundMethodMemberINS_18PipelineHandlerISIEvJPNS_11FrameBufferEEEE V
_ZTIN9libcamera17BoundMethodMemberINS_20DeviceEnumeratorUdevEvJEEE V
_ZTIN9libcamera17BoundMethodMemberINS_21PipelineHandlerRkISP1EvJPNS_11FrameBufferEEEE V
_ZTIN9libcamera17BoundMethodMemberINS_22PipelineHandlerMaliC55EvJjEEE V
_ZTIN9libcamera17BoundMethodMemberINS_22PipelineHandlerMaliC55EvJjRKNS_11ControlListEEEE V
_ZTIN9libcamera17BoundMethodMemberINS_22PipelineHandlerMaliC55EvJPNS_11FrameBufferEEEE V
_ZTIN9libcamera17BoundMethodMemberINS_3ipa3RPi11IPAProxyRPi11ThreadProxyEvJEEE V
_ZTIN9libcamera17BoundMethodMemberINS_3ipa3RPi11IPAProxyRPi11ThreadProxyEvJRKNS_11ControlListEPNS2_11StartResultEEEE V
_ZTIN9libcamera17BoundMethodMemberINS_3ipa3RPi11IPAProxyRPi11ThreadProxyEvJRKNS2_13PrepareParamsEEEE V
_ZTIN9libcamera17BoundMethodMemberINS_3ipa3RPi11IPAProxyRPi11ThreadProxyEvJRKNS2_13ProcessParamsEEEE V
_ZTIN9libcamera17BoundMethodMemberINS_3ipa3RPi11IPAProxyRPiEvJjEEE V
_ZTIN9libcamera17BoundMethodMemberINS_3ipa3RPi11IPAProxyRPiEvJRKNS_10IPCMessageEEEE V
_ZTIN9libcamera17BoundMethodMemberINS_3ipa3RPi11IPAProxyRPiEvJRKNS_11ControlListEEEE V
_ZTIN9libcamera17BoundMethodMemberINS_3ipa3RPi11IPAProxyRPiEvJRKNS_11ControlListEjEEE V
_ZTIN9libcamera17BoundMethodMemberINS_3ipa3RPi11IPAProxyRPiEvJRKNS2_9BufferIdsEbEEE V
_ZTIN9libcamera17BoundMethodMemberINS_3ipa3RPi11IPAProxyRPiEvJRKNS2_9BufferIdsEEEE V
_ZTIN9libcamera17BoundMethodMemberINS_3ipa4soft12IPAProxySoft11ThreadProxyEiJEEE V
_ZTIN9libcamera17BoundMethodMemberINS_3ipa4soft12IPAProxySoft11ThreadProxyEvJEEE V
_ZTIN9libcamera17BoundMethodMemberINS_3ipa4soft12IPAProxySoft11ThreadProxyEvJjEEE V
_ZTIN9libcamera17BoundMethodMemberINS_3ipa4soft12IPAProxySoft11ThreadProxyEvJjjRKNS_11ControlListEEEE V
_ZTIN9libcamera17BoundMethodMemberINS_3ipa4soft12IPAProxySoft11ThreadProxyEvJjRKNS_11ControlListEEEE V
_ZTIN9libcamera17BoundMethodMemberINS_3ipa4soft12IPAProxySoftEvJEEE V
_ZTIN9libcamera17BoundMethodMemberINS_3ipa4soft12IPAProxySoftEvJjRKNS_11ControlListEEEE V
_ZTIN9libcamera17BoundMethodMemberINS_3ipa4soft12IPAProxySoftEvJRKNS_10IPCMessageEEEE V
_ZTIN9libcamera17BoundMethodMemberINS_3ipa4soft12IPAProxySoftEvJRKNS_11ControlListEEEE V
_ZTIN9libcamera17BoundMethodMemberINS_3ipa6rkisp114IPAProxyRkISP111ThreadProxyEiJEEE V
_ZTIN9libcamera17BoundMethodMemberINS_3ipa6rkisp114IPAProxyRkISP111ThreadProxyEvJEEE V
_ZTIN9libcamera17BoundMethodMemberINS_3ipa6rkisp114IPAProxyRkISP111ThreadProxyEvJjjEEE V
_ZTIN9libcamera17BoundMethodMemberINS_3ipa6rkisp114IPAProxyRkISP111ThreadProxyEvJjjRKNS_11ControlListEEEE V
_ZTIN9libcamera17BoundMethodMemberINS_3ipa6rkisp114IPAProxyRkISP111ThreadProxyEvJjRKNS_11ControlListEEEE V
_ZTIN9libcamera17BoundMethodMemberINS_3ipa6rkisp114IPAProxyRkISP1EvJjjEEE V
_ZTIN9libcamera17BoundMethodMemberINS_3ipa6rkisp114IPAProxyRkISP1EvJjRKNS_11ControlListEEEE V
_ZTIN9libcamera17BoundMethodMemberINS_3ipa6rkisp114IPAProxyRkISP1EvJRKNS_10IPCMessageEEEE V
_ZTIN9libcamera17BoundMethodMemberINS_3ipa8mali_c5515IPAProxyMaliC5511ThreadProxyEiJEEE V
_ZTIN9libcamera17BoundMethodMemberINS_3ipa8mali_c5515IPAProxyMaliC5511ThreadProxyEvJEEE V
_ZTIN9libcamera17BoundMethodMemberINS_3ipa8mali_c5515IPAProxyMaliC5511ThreadProxyEvJjjEEE V
_ZTIN9libcamera17BoundMethodMemberINS_3ipa8mali_c5515IPAProxyMaliC5511ThreadProxyEvJjjRKNS_11ControlListEEEE V
_ZTIN9libcamera17BoundMethodMemberINS_3ipa8mali_c5515IPAProxyMaliC5511ThreadProxyEvJjRKNS_11ControlListEEEE V
_ZTIN9libcamera17BoundMethodMemberINS_3ipa8mali_c5515IPAProxyMaliC55EvJjEEE V
_ZTIN9libcamera17BoundMethodMemberINS_3ipa8mali_c5515IPAProxyMaliC55EvJjRKNS_11ControlListEEEE V
_ZTIN9libcamera17BoundMethodMemberINS_3ipa8mali_c5515IPAProxyMaliC55EvJRKNS_10IPCMessageEEEE V
_ZTIN9libcamera17BoundMethodMemberINS_3ipa8mali_c5515IPAProxyMaliC55EvJRKNS_11ControlListEEEE V
_ZTIN9libcamera17BoundMethodMemberINS_3RPi10CameraDataEvJEEE V
_ZTIN9libcamera17BoundMethodMemberINS_3RPi10CameraDataEvJjEEE V
_ZTIN9libcamera17BoundMethodMemberINS_3RPi10CameraDataEvJRKNS_11ControlListEEEE V
_ZTIN9libcamera17BoundMethodMemberINS_3RPi10CameraDataEvJRKNS_11ControlListEjEEE V
_ZTIN9libcamera17BoundMethodMemberINS_7Request7PrivateEvJEEE V
_ZTIN9libcamera17IPCPipeUnixSocketE V
_ZTIN9libcamera17MaliC55CameraDataE V
_ZTIN9libcamera18CameraSensorLegacyE V
_ZTIN9libcamera18PipelineHandlerISIE V
_ZTIN9libcamera18PipelineHandlerUVCE V
_ZTIN9libcamera18PipelineHandlerVc4E V
_ZTIN9libcamera19BoundMethodPackBaseE V
_ZTIN9libcamera19CameraConfigurationE V
_ZTIN9libcamera19CameraSensorFactoryINS_15CameraSensorRawEEE V
_ZTIN9libcamera19CameraSensorFactoryINS_18CameraSensorLegacyEEE V
_ZTIN9libcamera19PipelineHandlerPiSPE V
_ZTIN9libcamera20ConverterFactoryBaseE V
_ZTIN9libcamera20DeviceEnumeratorUdevE V
_ZTIN9libcamera21DeviceEnumeratorSysfsE V
_ZTIN9libcamera21PipelineHandlerRkISP1E V
_ZTIN9libcamera21SimplePipelineHandlerE V
_ZTIN9libcamera22CameraControlValidatorE V
_ZTIN9libcamera22ISICameraConfigurationE V
_ZTIN9libcamera22PipelineHandlerFactoryINS_18PipelineHandlerISIEEE V
_ZTIN9libcamera22PipelineHandlerFactoryINS_18PipelineHandlerUVCEEE V
_ZTIN9libcamera22PipelineHandlerFactoryINS_18PipelineHandlerVc4EEE V
_ZTIN9libcamera22PipelineHandlerFactoryINS_19PipelineHandlerPiSPEEE V
_ZTIN9libcamera22PipelineHandlerFactoryINS_21PipelineHandlerRkISP1EEE V
_ZTIN9libcamera22PipelineHandlerFactoryINS_21SimplePipelineHandlerEEE V
_ZTIN9libcamera22PipelineHandlerFactoryINS_22PipelineHandlerMaliC55EEE V
_ZTIN9libcamera22PipelineHandlerMaliC55E V
_ZTIN9libcamera22UVCCameraConfigurationE V
_ZTIN9libcamera23CameraSensorFactoryBaseE V
_ZTIN9libcamera25RkISP1CameraConfigurationE V
_ZTIN9libcamera25SimpleCameraConfigurationE V
_ZTIN9libcamera26MaliC55CameraConfigurationE V
_ZTIN9libcamera26PipelineHandlerFactoryBaseE V
_ZTIN9libcamera3ipa3RPi11IPAProxyRPi11ThreadProxyE V
_ZTIN9libcamera3ipa3RPi11IPAProxyRPiE V
_ZTIN9libcamera3ipa3RPi15IPARPiInterfaceE V
_ZTIN9libcamera3ipa4soft12IPAProxySoft11ThreadProxyE V
_ZTIN9libcamera3ipa4soft12IPAProxySoftE V
_ZTIN9libcamera3ipa4soft16IPASoftInterfaceE V
_ZTIN9libcamera3ipa6rkisp114IPAProxyRkISP111ThreadProxyE V
_ZTIN9libcamera3ipa6rkisp114IPAProxyRkISP1E V
_ZTIN9libcamera3ipa6rkisp118IPARkISP1InterfaceE V
_ZTIN9libcamera3ipa8mali_c5515IPAProxyMaliC5511ThreadProxyE V
_ZTIN9libcamera3ipa8mali_c5515IPAProxyMaliC55E V
_ZTIN9libcamera3ipa8mali_c5519IPAMaliC55InterfaceE V
_ZTIN9libcamera3RPi10CameraDataE V
_ZTIN9libcamera3RPi19PipelineHandlerBaseE V
_ZTIN9libcamera3RPi22RPiCameraConfigurationE V
_ZTIN9libcamera6Camera7PrivateE V
_ZTIN9libcamera6CameraE V
_ZTIN9libcamera7DebayerE V
_ZTIN9libcamera7IPCPipeE V
_ZTIN9libcamera7Request7PrivateE V
_ZTIN9libcamera8IPAProxyE V
_ZTIN9libcamera8MediaPadE V
_ZTIN9libcamera9ConverterE V
_ZTIN9libcamera9IPAModuleE V
_ZTIN9libcamera9MediaLinkE V
_ZTIN9libcamera9SharedMemE V
_ZTINSt8__detail11_AnyMatcherINSt7__cxx1112regex_traitsIcEELb0ELb0ELb0EEE V
_ZTINSt8__detail11_AnyMatcherINSt7__cxx1112regex_traitsIcEELb0ELb0ELb1EEE V
_ZTINSt8__detail11_AnyMatcherINSt7__cxx1112regex_traitsIcEELb0ELb1ELb0EEE V
_ZTINSt8__detail11_AnyMatcherINSt7__cxx1112regex_traitsIcEELb0ELb1ELb1EEE V
_ZTINSt8__detail11_AnyMatcherINSt7__cxx1112regex_traitsIcEELb1ELb0ELb0EEE V
_ZTINSt8__detail11_AnyMatcherINSt7__cxx1112regex_traitsIcEELb1ELb0ELb1EEE V
_ZTINSt8__detail11_AnyMatcherINSt7__cxx1112regex_traitsIcEELb1ELb1ELb0EEE V
_ZTINSt8__detail11_AnyMatcherINSt7__cxx1112regex_traitsIcEELb1ELb1ELb1EEE V
_ZTINSt8__detail12_CharMatcherINSt7__cxx1112regex_traitsIcEELb0ELb0EEE V
_ZTINSt8__detail12_CharMatcherINSt7__cxx1112regex_traitsIcEELb0ELb1EEE V
_ZTINSt8__detail12_CharMatcherINSt7__cxx1112regex_traitsIcEELb1ELb0EEE V
_ZTINSt8__detail12_CharMatcherINSt7__cxx1112regex_traitsIcEELb1ELb1EEE V
_ZTINSt8__detail15_BracketMatcherINSt7__cxx1112regex_traitsIcEELb0ELb0EEE V
_ZTINSt8__detail15_BracketMatcherINSt7__cxx1112regex_traitsIcEELb0ELb1EEE V
_ZTINSt8__detail15_BracketMatcherINSt7__cxx1112regex_traitsIcEELb1ELb0EEE V
_ZTINSt8__detail15_BracketMatcherINSt7__cxx1112regex_traitsIcEELb1ELb1EEE V
_ZTISt11_Mutex_baseILN9__gnu_cxx12_Lock_policyE2EE V
_ZTISt16_Sp_counted_baseILN9__gnu_cxx12_Lock_policyE2EE V
_ZTISt18bad_variant_access V
_ZTISt19bad_optional_access V
_ZTISt19_Sp_counted_deleterIPN9libcamera11MediaDeviceESt14default_deleteIS1_ESaIvELN9__gnu_cxx12_Lock_policyE2EE V
_ZTISt19_Sp_counted_deleterIPN9libcamera15PipelineHandlerESt14default_deleteIS1_ESaIvELN9__gnu_cxx12_Lock_policyE2EE V
_ZTISt23enable_shared_from_thisIN9libcamera15PipelineHandlerEE V
_ZTISt23enable_shared_from_thisIN9libcamera6CameraEE V
_ZTISt23_Sp_counted_ptr_inplaceIN9libcamera15BoundMethodPackIbJPNS0_6CameraEEEESaIvELN9__gnu_cxx12_Lock_policyE2EE V
_ZTISt23_Sp_counted_ptr_inplaceIN9libcamera15BoundMethodPackIiJEEESaIvELN9__gnu_cxx12_Lock_policyE2EE V
_ZTISt23_Sp_counted_ptr_inplaceIN9libcamera15BoundMethodPackIiJPNS0_6CameraEPKNS0_11ControlListEEEESaIvELN9__gnu_cxx12_Lock_policyE2EE V
_ZTISt23_Sp_counted_ptr_inplaceIN9libcamera15BoundMethodPackIiJPNS0_6CameraEPNS0_19CameraConfigurationEEEESaIvELN9__gnu_cxx12_Lock_policyE2EE V
_ZTISt23_Sp_counted_ptr_inplaceIN9libcamera15BoundMethodPackIiJPNS0_6CameraEPNS0_6StreamEPSt6vectorISt10unique_ptrINS0_11FrameBufferESt14default_deleteIS8_EESaISB_EEEEESaIvELN9__gnu_cxx12_Lock_policyE2EE V
_ZTISt23_Sp_counted_ptr_inplaceIN9libcamera15BoundMethodPackIvJEEESaIvELN9__gnu_cxx12_Lock_policyE2EE V
_ZTISt23_Sp_counted_ptr_inplaceIN9libcamera15BoundMethodPackIvJjEEESaIvELN9__gnu_cxx12_Lock_policyE2EE V
_ZTISt23_Sp_counted_ptr_inplaceIN9libcamera15BoundMethodPackIvJjjEEESaIvELN9__gnu_cxx12_Lock_policyE2EE V
_ZTISt23_Sp_counted_ptr_inplaceIN9libcamera15BoundMethodPackIvJjjRKNS0_11ControlListEEEESaIvELN9__gnu_cxx12_Lock_policyE2EE V
_ZTISt23_Sp_counted_ptr_inplaceIN9libcamera15BoundMethodPackIvJjPNS0_11FrameBufferES3_NS0_13DebayerParamsEEEESaIvELN9__gnu_cxx12_Lock_policyE2EE V
_ZTISt23_Sp_counted_ptr_inplaceIN9libcamera15BoundMethodPackIvJjRKNS0_11ControlListEEEESaIvELN9__gnu_cxx12_Lock_policyE2EE V
_ZTISt23_Sp_counted_ptr_inplaceIN9libcamera15BoundMethodPackIvJPNS0_11FrameBufferEEEESaIvELN9__gnu_cxx12_Lock_policyE2EE V
_ZTISt23_Sp_counted_ptr_inplaceIN9libcamera15BoundMethodPackIvJPNS0_6CameraEEEESaIvELN9__gnu_cxx12_Lock_policyE2EE V
_ZTISt23_Sp_counted_ptr_inplaceIN9libcamera15BoundMethodPackIvJPNS0_7RequestEEEESaIvELN9__gnu_cxx12_Lock_policyE2EE V
_ZTISt23_Sp_counted_ptr_inplaceIN9libcamera15BoundMethodPackIvJRKNS0_10IPCMessageEEEESaIvELN9__gnu_cxx12_Lock_policyE2EE V
_ZTISt23_Sp_counted_ptr_inplaceIN9libcamera15BoundMethodPackIvJRKNS0_11ControlListEEEESaIvELN9__gnu_cxx12_Lock_policyE2EE V
_ZTISt23_Sp_counted_ptr_inplaceIN9libcamera15BoundMethodPackIvJRKNS0_11ControlListEjEEESaIvELN9__gnu_cxx12_Lock_policyE2EE V
_ZTISt23_Sp_counted_ptr_inplaceIN9libcamera15BoundMethodPackIvJRKNS0_11ControlListEPNS0_3ipa3RPi11StartResultEEEESaIvELN9__gnu_cxx12_Lock_policyE2EE V
_ZTISt23_Sp_counted_ptr_inplaceIN9libcamera15BoundMethodPackIvJRKNS0_3ipa3RPi13PrepareParamsEEEESaIvELN9__gnu_cxx12_Lock_policyE2EE V
_ZTISt23_Sp_counted_ptr_inplaceIN9libcamera15BoundMethodPackIvJRKNS0_3ipa3RPi13ProcessParamsEEEESaIvELN9__gnu_cxx12_Lock_policyE2EE V
_ZTISt23_Sp_counted_ptr_inplaceIN9libcamera15BoundMethodPackIvJRKNS0_3ipa3RPi9BufferIdsEbEEESaIvELN9__gnu_cxx12_Lock_policyE2EE V
_ZTISt23_Sp_counted_ptr_inplaceIN9libcamera15BoundMethodPackIvJRKNS0_3ipa3RPi9BufferIdsEEEESaIvELN9__gnu_cxx12_Lock_policyE2EE V
_ZTISt23_Sp_counted_ptr_inplaceINSt8__detail4_NFAINSt7__cxx1112regex_traitsIcEEEESaIvELN9__gnu_cxx12_Lock_policyE2EE V
_ZTIZN9libcamera6SignalIJEE10disconnectEvEUlRSt14_List_iteratorIPNS_15BoundMethodBaseEEE_ V
_ZTIZN9libcamera6SignalIJEE10disconnectINS_13CameraManager7PrivateEEEvPT_EUlRSt14_List_iteratorIPNS_15BoundMethodBaseEEE_ V
_ZTIZN9libcamera6SignalIJEE10disconnectINS_15PipelineHandlerEEEvPT_EUlRSt14_List_iteratorIPNS_15BoundMethodBaseEEE_ V
_ZTIZN9libcamera6SignalIJjEE10disconnectEvEUlRSt14_List_iteratorIPNS_15BoundMethodBaseEEE_ V
_ZTIZN9libcamera6SignalIJjEE10disconnectINS_15DelayedControlsEvEEvPT_MS4_FT0_jEEUlRSt14_List_iteratorIPNS_15BoundMethodBaseEEE_ V
_ZTIZN9libcamera6SignalIJjjEE10disconnectEvEUlRSt14_List_iteratorIPNS_15BoundMethodBaseEEE_ V
_ZTIZN9libcamera6SignalIJjRKNS_11ControlListEEE10disconnectEvEUlRSt14_List_iteratorIPNS_15BoundMethodBaseEEE_ V
_ZTIZN9libcamera6SignalIJNS_7Process10ExitStatusEiEE10disconnectEvEUlRSt14_List_iteratorIPNS_15BoundMethodBaseEEE_ V
_ZTIZN9libcamera6SignalIJPNS_11FrameBufferEEE10disconnectEvEUlRSt14_List_iteratorIPNS_15BoundMethodBaseEEE_ V
_ZTIZN9libcamera6SignalIJPNS_11FrameBufferEEE10disconnectINS_16SimpleCameraDataEvEEvPT_MS6_FT0_S2_EEUlRSt14_List_iteratorIPNS_15BoundMethodBaseEEE_ V
_ZTIZN9libcamera6SignalIJPNS_7RequestEEE10disconnectEvEUlRSt14_List_iteratorIPNS_15BoundMethodBaseEEE_ V
_ZTIZN9libcamera6SignalIJPNS_7RequestEPNS_11FrameBufferEEE10disconnectEvEUlRSt14_List_iteratorIPNS_15BoundMethodBaseEEE_ V
_ZTIZN9libcamera6SignalIJRKNS_10IPCMessageEEE10disconnectEvEUlRSt14_List_iteratorIPNS_15BoundMethodBaseEEE_ V
_ZTIZN9libcamera6SignalIJRKNS_11ControlListEEE10disconnectEvEUlRSt14_List_iteratorIPNS_15BoundMethodBaseEEE_ V
_ZTIZN9libcamera6SignalIJRKNS_11ControlListEjEE10disconnectEvEUlRSt14_List_iteratorIPNS_15BoundMethodBaseEEE_ V
_ZTIZN9libcamera6SignalIJRKNS_3ipa3RPi9BufferIdsEbEE10disconnectEvEUlRSt14_List_iteratorIPNS_15BoundMethodBaseEEE_ V
_ZTIZN9libcamera6SignalIJRKNS_3ipa3RPi9BufferIdsEEE10disconnectEvEUlRSt14_List_iteratorIPNS_15BoundMethodBaseEEE_ V
_ZTIZN9libcamera6SignalIJSt10shared_ptrINS_6CameraEEEE10disconnectEvEUlRSt14_List_iteratorIPNS_15BoundMethodBaseEEE_ V
_ZTSN9libcamera10CameraLensE V
_ZTSN9libcamera10DebayerCpuE V
_ZTSN9libcamera10ExtensibleE V
_ZTSN9libcamera10V4L2DeviceE V
_ZTSN9libcamera11FrameBuffer7PrivateE V
_ZTSN9libcamera11FrameBufferE V
_ZTSN9libcamera11MediaDeviceE V
_ZTSN9libcamera11MediaEntityE V
_ZTSN9libcamera11MediaObjectE V
_ZTSN9libcamera11SoftwareIspE V
_ZTSN9libcamera12CameraSensorE V
_ZTSN9libcamera12IPAInterfaceE V
_ZTSN9libcamera13CameraManager7PrivateE V
_ZTSN9libcamera13CameraManagerE V
_ZTSN9libcamera13ISICameraDataE V
_ZTSN9libcamera13UVCCameraDataE V
_ZTSN9libcamera13V4L2SubdeviceE V
_ZTSN9libcamera13Vc4CameraDataE V
_ZTSN9libcamera14PiSPCameraDataE V
_ZTSN9libcamera15BoundMethodArgsIbJPNS_6CameraEEEE V
_ZTSN9libcamera15BoundMethodArgsIiJEEE V
_ZTSN9libcamera15BoundMethodArgsIiJPNS_6CameraEPKNS_11ControlListEEEE V
_ZTSN9libcamera15BoundMethodArgsIiJPNS_6CameraEPNS_19CameraConfigurationEEEE V
_ZTSN9libcamera15BoundMethodArgsIiJPNS_6CameraEPNS_6StreamEPSt6vectorISt10unique_ptrINS_11FrameBufferESt14default_deleteIS7_EESaISA_EEEEE V
_ZTSN9libcamera15BoundMethodArgsIvJEEE V
_ZTSN9libcamera15BoundMethodArgsIvJjEEE V
_ZTSN9libcamera15BoundMethodArgsIvJjjEEE V
_ZTSN9libcamera15BoundMethodArgsIvJjjRKNS_11ControlListEEEE V
_ZTSN9libcamera15BoundMethodArgsIvJjPNS_11FrameBufferES2_NS_13DebayerParamsEEEE V
_ZTSN9libcamera15BoundMethodArgsIvJjRKNS_11ControlListEEEE V
_ZTSN9libcamera15BoundMethodArgsIvJPNS_11FrameBufferEEEE V
_ZTSN9libcamera15BoundMethodArgsIvJPNS_6CameraEEEE V
_ZTSN9libcamera15BoundMethodArgsIvJPNS_7RequestEEEE V
_ZTSN9libcamera15BoundMethodArgsIvJRKNS_10IPCMessageEEEE V
_ZTSN9libcamera15BoundMethodArgsIvJRKNS_11ControlListEEEE V
_ZTSN9libcamera15BoundMethodArgsIvJRKNS_11ControlListEjEEE V
_ZTSN9libcamera15BoundMethodArgsIvJRKNS_11ControlListEPNS_3ipa3RPi11StartResultEEEE V
_ZTSN9libcamera15BoundMethodArgsIvJRKNS_3ipa3RPi13PrepareParamsEEEE V
_ZTSN9libcamera15BoundMethodArgsIvJRKNS_3ipa3RPi13ProcessParamsEEEE V
_ZTSN9libcamera15BoundMethodArgsIvJRKNS_3ipa3RPi9BufferIdsEbEEE V
_ZTSN9libcamera15BoundMethodArgsIvJRKNS_3ipa3RPi9BufferIdsEEEE V
_ZTSN9libcamera15BoundMethodBaseE V
_ZTSN9libcamera15BoundMethodPackIbJPNS_6CameraEEEE V
_ZTSN9libcamera15BoundMethodPackIiJEEE V
_ZTSN9libcamera15BoundMethodPackIiJPNS_6CameraEPKNS_11ControlListEEEE V
_ZTSN9libcamera15BoundMethodPackIiJPNS_6CameraEPNS_19CameraConfigurationEEEE V
_ZTSN9libcamera15BoundMethodPackIiJPNS_6CameraEPNS_6StreamEPSt6vectorISt10unique_ptrINS_11FrameBufferESt14default_deleteIS7_EESaISA_EEEEE V
_ZTSN9libcamera15BoundMethodPackIvJEEE V
_ZTSN9libcamera15BoundMethodPackIvJjEEE V
_ZTSN9libcamera15BoundMethodPackIvJjjEEE V
_ZTSN9libcamera15BoundMethodPackIvJjjRKNS_11ControlListEEEE V
_ZTSN9libcamera15BoundMethodPackIvJjPNS_11FrameBufferES2_NS_13DebayerParamsEEEE V
_ZTSN9libcamera15BoundMethodPackIvJjRKNS_11ControlListEEEE V
_ZTSN9libcamera15BoundMethodPackIvJPNS_11FrameBufferEEEE V
_ZTSN9libcamera15BoundMethodPackIvJPNS_6CameraEEEE V
_ZTSN9libcamera15BoundMethodPackIvJPNS_7RequestEEEE V
_ZTSN9libcamera15BoundMethodPackIvJRKNS_10IPCMessageEEEE V
_ZTSN9libcamera15BoundMethodPackIvJRKNS_11ControlListEEEE V
_ZTSN9libcamera15BoundMethodPackIvJRKNS_11ControlListEjEEE V
_ZTSN9libcamera15BoundMethodPackIvJRKNS_11ControlListEPNS_3ipa3RPi11StartResultEEEE V
_ZTSN9libcamera15BoundMethodPackIvJRKNS_3ipa3RPi13PrepareParamsEEEE V
_ZTSN9libcamera15BoundMethodPackIvJRKNS_3ipa3RPi13ProcessParamsEEEE V
_ZTSN9libcamera15BoundMethodPackIvJRKNS_3ipa3RPi9BufferIdsEbEEE V
_ZTSN9libcamera15BoundMethodPackIvJRKNS_3ipa3RPi9BufferIdsEEEE V
_ZTSN9libcamera15CameraSensorRawE V
_ZTSN9libcamera15PipelineHandlerE V
_ZTSN9libcamera15SharedMemObjectIN7libpisp7BackEndEvEE V
_ZTSN9libcamera15SharedMemObjectIN7libpisp8FrontEndEvEE V
_ZTSN9libcamera15SharedMemObjectINS_10SwIspStatsEvEE V
_ZTSN9libcamera15SharedMemObjectINS_13DebayerParamsEvEE V
_ZTSN9libcamera15V4L2VideoDeviceE V
_ZTSN9libcamera16ControlValidatorE V
_ZTSN9libcamera16ConverterFactoryINS_16V4L2M2MConverterEEE V
_ZTSN9libcamera16DeviceEnumeratorE V
_ZTSN9libcamera16RkISP1CameraDataE V
_ZTSN9libcamera16SimpleCameraDataE V
_ZTSN9libcamera16V4L2M2MConverter13V4L2M2MStreamE V
_ZTSN9libcamera16V4L2M2MConverterE V
_ZTSN9libcamera17BoundMethodMemberINS_10DebayerCpuEvJjPNS_11FrameBufferES3_NS_13DebayerParamsEEEE V
_ZTSN9libcamera17BoundMethodMemberINS_10V4L2DeviceEvJEEE V
_ZTSN9libcamera17BoundMethodMemberINS_11SoftwareIspEvJEEE V
_ZTSN9libcamera17BoundMethodMemberINS_11SoftwareIspEvJjjEEE V
_ZTSN9libcamera17BoundMethodMemberINS_11SoftwareIspEvJPNS_11FrameBufferEEEE V
_ZTSN9libcamera17BoundMethodMemberINS_11SoftwareIspEvJRKNS_11ControlListEEEE V
_ZTSN9libcamera17BoundMethodMemberINS_13CameraManager7PrivateEvJEEE V
_ZTSN9libcamera17BoundMethodMemberINS_13IPCUnixSocketEvJEEE V
_ZTSN9libcamera17BoundMethodMemberINS_13UVCCameraDataEvJPNS_11FrameBufferEEEE V
_ZTSN9libcamera17BoundMethodMemberINS_13Vc4CameraDataEvJjEEE V
_ZTSN9libcamera17BoundMethodMemberINS_13Vc4CameraDataEvJPNS_11FrameBufferEEEE V
_ZTSN9libcamera17BoundMethodMemberINS_13Vc4CameraDataEvJRKNS_11ControlListEEEE V
_ZTSN9libcamera17BoundMethodMemberINS_13Vc4CameraDataEvJRKNS_3ipa3RPi9BufferIdsEbEEE V
_ZTSN9libcamera17BoundMethodMemberINS_13Vc4CameraDataEvJRKNS_3ipa3RPi9BufferIdsEEEE V
_ZTSN9libcamera17BoundMethodMemberINS_14PiSPCameraDataEvJjEEE V
_ZTSN9libcamera17BoundMethodMemberINS_14PiSPCameraDataEvJPNS_11FrameBufferEEEE V
_ZTSN9libcamera17BoundMethodMemberINS_14PiSPCameraDataEvJRKNS_3ipa3RPi9BufferIdsEbEEE V
_ZTSN9libcamera17BoundMethodMemberINS_14PiSPCameraDataEvJRKNS_3ipa3RPi9BufferIdsEEEE V
_ZTSN9libcamera17BoundMethodMemberINS_14ProcessManagerEvJEEE V
_ZTSN9libcamera17BoundMethodMemberINS_15DelayedControlsEvJjEEE V
_ZTSN9libcamera17BoundMethodMemberINS_15PipelineHandlerEbJPNS_6CameraEEEE V
_ZTSN9libcamera17BoundMethodMemberINS_15PipelineHandlerEiJPNS_6CameraEPKNS_11ControlListEEEE V
_ZTSN9libcamera17BoundMethodMemberINS_15PipelineHandlerEiJPNS_6CameraEPNS_19CameraConfigurationEEEE V
_ZTSN9libcamera17BoundMethodMemberINS_15PipelineHandlerEiJPNS_6CameraEPNS_6StreamEPSt6vectorISt10unique_ptrINS_11FrameBufferESt14default_deleteIS8_EESaISB_EEEEE V
_ZTSN9libcamera17BoundMethodMemberINS_15PipelineHandlerEvJEEE V
_ZTSN9libcamera17BoundMethodMemberINS_15PipelineHandlerEvJPNS_6CameraEEEE V
_ZTSN9libcamera17BoundMethodMemberINS_15PipelineHandlerEvJPNS_7RequestEEEE V
_ZTSN9libcamera17BoundMethodMemberINS_15V4L2VideoDeviceEvJEEE V
_ZTSN9libcamera17BoundMethodMemberINS_16RkISP1CameraDataEvJjjEEE V
_ZTSN9libcamera17BoundMethodMemberINS_16RkISP1CameraDataEvJjRKNS_11ControlListEEEE V
_ZTSN9libcamera17BoundMethodMemberINS_16SimpleCameraDataEvJjjEEE V
_ZTSN9libcamera17BoundMethodMemberINS_16SimpleCameraDataEvJjRKNS_11ControlListEEEE V
_ZTSN9libcamera17BoundMethodMemberINS_16SimpleCameraDataEvJPNS_11FrameBufferEEEE V
_ZTSN9libcamera17BoundMethodMemberINS_16SimpleCameraDataEvJRKNS_11ControlListEEEE V
_ZTSN9libcamera17BoundMethodMemberINS_16V4L2M2MConverter13V4L2M2MStreamEvJPNS_11FrameBufferEEEE V
_ZTSN9libcamera17BoundMethodMemberINS_17IPCPipeUnixSocketEvJEEE V
_ZTSN9libcamera17BoundMethodMemberINS_17MaliC55CameraDataEvJRKNS_11ControlListEEEE V
_ZTSN9libcamera17BoundMethodMemberINS_18PipelineHandlerISIEvJPNS_11FrameBufferEEEE V
_ZTSN9libcamera17BoundMethodMemberINS_20DeviceEnumeratorUdevEvJEEE V
_ZTSN9libcamera17BoundMethodMemberINS_21PipelineHandlerRkISP1EvJPNS_11FrameBufferEEEE V
_ZTSN9libcamera17BoundMethodMemberINS_22PipelineHandlerMaliC55EvJjEEE V
_ZTSN9libcamera17BoundMethodMemberINS_22PipelineHandlerMaliC55EvJjRKNS_11ControlListEEEE V
_ZTSN9libcamera17BoundMethodMemberINS_22PipelineHandlerMaliC55EvJPNS_11FrameBufferEEEE V
_ZTSN9libcamera17BoundMethodMemberINS_3ipa3RPi11IPAProxyRPi11ThreadProxyEvJEEE V
_ZTSN9libcamera17BoundMethodMemberINS_3ipa3RPi11IPAProxyRPi11ThreadProxyEvJRKNS_11ControlListEPNS2_11StartResultEEEE V
_ZTSN9libcamera17BoundMethodMemberINS_3ipa3RPi11IPAProxyRPi11ThreadProxyEvJRKNS2_13PrepareParamsEEEE V
_ZTSN9libcamera17BoundMethodMemberINS_3ipa3RPi11IPAProxyRPi11ThreadProxyEvJRKNS2_13ProcessParamsEEEE V
_ZTSN9libcamera17BoundMethodMemberINS_3ipa3RPi11IPAProxyRPiEvJjEEE V
_ZTSN9libcamera17BoundMethodMemberINS_3ipa3RPi11IPAProxyRPiEvJRKNS_10IPCMessageEEEE V
_ZTSN9libcamera17BoundMethodMemberINS_3ipa3RPi11IPAProxyRPiEvJRKNS_11ControlListEEEE V
_ZTSN9libcamera17BoundMethodMemberINS_3ipa3RPi11IPAProxyRPiEvJRKNS_11ControlListEjEEE V
_ZTSN9libcamera17BoundMethodMemberINS_3ipa3RPi11IPAProxyRPiEvJRKNS2_9BufferIdsEbEEE V
_ZTSN9libcamera17BoundMethodMemberINS_3ipa3RPi11IPAProxyRPiEvJRKNS2_9BufferIdsEEEE V
_ZTSN9libcamera17BoundMethodMemberINS_3ipa4soft12IPAProxySoft11ThreadProxyEiJEEE V
_ZTSN9libcamera17BoundMethodMemberINS_3ipa4soft12IPAProxySoft11ThreadProxyEvJEEE V
_ZTSN9libcamera17BoundMethodMemberINS_3ipa4soft12IPAProxySoft11ThreadProxyEvJjEEE V
_ZTSN9libcamera17BoundMethodMemberINS_3ipa4soft12IPAProxySoft11ThreadProxyEvJjjRKNS_11ControlListEEEE V
_ZTSN9libcamera17BoundMethodMemberINS_3ipa4soft12IPAProxySoft11ThreadProxyEvJjRKNS_11ControlListEEEE V
_ZTSN9libcamera17BoundMethodMemberINS_3ipa4soft12IPAProxySoftEvJEEE V
_ZTSN9libcamera17BoundMethodMemberINS_3ipa4soft12IPAProxySoftEvJjRKNS_11ControlListEEEE V
_ZTSN9libcamera17BoundMethodMemberINS_3ipa4soft12IPAProxySoftEvJRKNS_10IPCMessageEEEE V
_ZTSN9libcamera17BoundMethodMemberINS_3ipa4soft12IPAProxySoftEvJRKNS_11ControlListEEEE V
_ZTSN9libcamera17BoundMethodMemberINS_3ipa6rkisp114IPAProxyRkISP111ThreadProxyEiJEEE V
_ZTSN9libcamera17BoundMethodMemberINS_3ipa6rkisp114IPAProxyRkISP111ThreadProxyEvJEEE V
_ZTSN9libcamera17BoundMethodMemberINS_3ipa6rkisp114IPAProxyRkISP111ThreadProxyEvJjjEEE V
_ZTSN9libcamera17BoundMethodMemberINS_3ipa6rkisp114IPAProxyRkISP111ThreadProxyEvJjjRKNS_11ControlListEEEE V
_ZTSN9libcamera17BoundMethodMemberINS_3ipa6rkisp114IPAProxyRkISP111ThreadProxyEvJjRKNS_11ControlListEEEE V
_ZTSN9libcamera17BoundMethodMemberINS_3ipa6rkisp114IPAProxyRkISP1EvJjjEEE V
_ZTSN9libcamera17BoundMethodMemberINS_3ipa6rkisp114IPAProxyRkISP1EvJjRKNS_11ControlListEEEE V
_ZTSN9libcamera17BoundMethodMemberINS_3ipa6rkisp114IPAProxyRkISP1EvJRKNS_10IPCMessageEEEE V
_ZTSN9libcamera17BoundMethodMemberINS_3ipa8mali_c5515IPAProxyMaliC5511ThreadProxyEiJEEE V
_ZTSN9libcamera17BoundMethodMemberINS_3ipa8mali_c5515IPAProxyMaliC5511ThreadProxyEvJEEE V
_ZTSN9libcamera17BoundMethodMemberINS_3ipa8mali_c5515IPAProxyMaliC5511ThreadProxyEvJjjEEE V
_ZTSN9libcamera17BoundMethodMemberINS_3ipa8mali_c5515IPAProxyMaliC5511ThreadProxyEvJjjRKNS_11ControlListEEEE V
_ZTSN9libcamera17BoundMethodMemberINS_3ipa8mali_c5515IPAProxyMaliC5511ThreadProxyEvJjRKNS_11ControlListEEEE V
_ZTSN9libcamera17BoundMethodMemberINS_3ipa8mali_c5515IPAProxyMaliC55EvJjEEE V
_ZTSN9libcamera17BoundMethodMemberINS_3ipa8mali_c5515IPAProxyMaliC55EvJjRKNS_11ControlListEEEE V
_ZTSN9libcamera17BoundMethodMemberINS_3ipa8mali_c5515IPAProxyMaliC55EvJRKNS_10IPCMessageEEEE V
_ZTSN9libcamera17BoundMethodMemberINS_3ipa8mali_c5515IPAProxyMaliC55EvJRKNS_11ControlListEEEE V
_ZTSN9libcamera17BoundMethodMemberINS_3RPi10CameraDataEvJEEE V
_ZTSN9libcamera17BoundMethodMemberINS_3RPi10CameraDataEvJjEEE V
_ZTSN9libcamera17BoundMethodMemberINS_3RPi10CameraDataEvJRKNS_11ControlListEEEE V
_ZTSN9libcamera17BoundMethodMemberINS_3RPi10CameraDataEvJRKNS_11ControlListEjEEE V
_ZTSN9libcamera17BoundMethodMemberINS_7Request7PrivateEvJEEE V
_ZTSN9libcamera17IPCPipeUnixSocketE V
_ZTSN9libcamera17MaliC55CameraDataE V
_ZTSN9libcamera18CameraSensorLegacyE V
_ZTSN9libcamera18PipelineHandlerISIE V
_ZTSN9libcamera18PipelineHandlerUVCE V
_ZTSN9libcamera18PipelineHandlerVc4E V
_ZTSN9libcamera19BoundMethodPackBaseE V
_ZTSN9libcamera19CameraConfigurationE V
_ZTSN9libcamera19CameraSensorFactoryINS_15CameraSensorRawEEE V
_ZTSN9libcamera19CameraSensorFactoryINS_18CameraSensorLegacyEEE V
_ZTSN9libcamera19PipelineHandlerPiSPE V
_ZTSN9libcamera20ConverterFactoryBaseE V
_ZTSN9libcamera20DeviceEnumeratorUdevE V
_ZTSN9libcamera21DeviceEnumeratorSysfsE V
_ZTSN9libcamera21PipelineHandlerRkISP1E V
_ZTSN9libcamera21SimplePipelineHandlerE V
_ZTSN9libcamera22CameraControlValidatorE V
_ZTSN9libcamera22ISICameraConfigurationE V
_ZTSN9libcamera22PipelineHandlerFactoryINS_18PipelineHandlerISIEEE V
_ZTSN9libcamera22PipelineHandlerFactoryINS_18PipelineHandlerUVCEEE V
_ZTSN9libcamera22PipelineHandlerFactoryINS_18PipelineHandlerVc4EEE V
_ZTSN9libcamera22PipelineHandlerFactoryINS_19PipelineHandlerPiSPEEE V
_ZTSN9libcamera22PipelineHandlerFactoryINS_21PipelineHandlerRkISP1EEE V
_ZTSN9libcamera22PipelineHandlerFactoryINS_21SimplePipelineHandlerEEE V
_ZTSN9libcamera22PipelineHandlerFactoryINS_22PipelineHandlerMaliC55EEE V
_ZTSN9libcamera22PipelineHandlerMaliC55E V
_ZTSN9libcamera22UVCCameraConfigurationE V
_ZTSN9libcamera23CameraSensorFactoryBaseE V
_ZTSN9libcamera25RkISP1CameraConfigurationE V
_ZTSN9libcamera25SimpleCameraConfigurationE V
_ZTSN9libcamera26MaliC55CameraConfigurationE V
_ZTSN9libcamera26PipelineHandlerFactoryBaseE V
_ZTSN9libcamera3ipa3RPi11IPAProxyRPi11ThreadProxyE V
_ZTSN9libcamera3ipa3RPi11IPAProxyRPiE V
_ZTSN9libcamera3ipa3RPi15IPARPiInterfaceE V
_ZTSN9libcamera3ipa4soft12IPAProxySoft11ThreadProxyE V
_ZTSN9libcamera3ipa4soft12IPAProxySoftE V
_ZTSN9libcamera3ipa4soft16IPASoftInterfaceE V
_ZTSN9libcamera3ipa6rkisp114IPAProxyRkISP111ThreadProxyE V
_ZTSN9libcamera3ipa6rkisp114IPAProxyRkISP1E V
_ZTSN9libcamera3ipa6rkisp118IPARkISP1InterfaceE V
_ZTSN9libcamera3ipa8mali_c5515IPAProxyMaliC5511ThreadProxyE V
_ZTSN9libcamera3ipa8mali_c5515IPAProxyMaliC55E V
_ZTSN9libcamera3ipa8mali_c5519IPAMaliC55InterfaceE V
_ZTSN9libcamera3RPi10CameraDataE V
_ZTSN9libcamera3RPi19PipelineHandlerBaseE V
_ZTSN9libcamera3RPi22RPiCameraConfigurationE V
_ZTSN9libcamera6Camera7PrivateE V
_ZTSN9libcamera6CameraE V
_ZTSN9libcamera7DebayerE V
_ZTSN9libcamera7IPCPipeE V
_ZTSN9libcamera7Request7PrivateE V
_ZTSN9libcamera8IPAProxyE V
_ZTSN9libcamera8MediaPadE V
_ZTSN9libcamera9ConverterE V
_ZTSN9libcamera9IPAModuleE V
_ZTSN9libcamera9MediaLinkE V
_ZTSN9libcamera9SharedMemE V
_ZTSNSt8__detail11_AnyMatcherINSt7__cxx1112regex_traitsIcEELb0ELb0ELb0EEE V
_ZTSNSt8__detail11_AnyMatcherINSt7__cxx1112regex_traitsIcEELb0ELb0ELb1EEE V
_ZTSNSt8__detail11_AnyMatcherINSt7__cxx1112regex_traitsIcEELb0ELb1ELb0EEE V
_ZTSNSt8__detail11_AnyMatcherINSt7__cxx1112regex_traitsIcEELb0ELb1ELb1EEE V
_ZTSNSt8__detail11_AnyMatcherINSt7__cxx1112regex_traitsIcEELb1ELb0ELb0EEE V
_ZTSNSt8__detail11_AnyMatcherINSt7__cxx1112regex_traitsIcEELb1ELb0ELb1EEE V
_ZTSNSt8__detail11_AnyMatcherINSt7__cxx1112regex_traitsIcEELb1ELb1ELb0EEE V
_ZTSNSt8__detail11_AnyMatcherINSt7__cxx1112regex_traitsIcEELb1ELb1ELb1EEE V
_ZTSNSt8__detail12_CharMatcherINSt7__cxx1112regex_traitsIcEELb0ELb0EEE V
_ZTSNSt8__detail12_CharMatcherINSt7__cxx1112regex_traitsIcEELb0ELb1EEE V
_ZTSNSt8__detail12_CharMatcherINSt7__cxx1112regex_traitsIcEELb1ELb0EEE V
_ZTSNSt8__detail12_CharMatcherINSt7__cxx1112regex_traitsIcEELb1ELb1EEE V
_ZTSNSt8__detail15_BracketMatcherINSt7__cxx1112regex_traitsIcEELb0ELb0EEE V
_ZTSNSt8__detail15_BracketMatcherINSt7__cxx1112regex_traitsIcEELb0ELb1EEE V
_ZTSNSt8__detail15_BracketMatcherINSt7__cxx1112regex_traitsIcEELb1ELb0EEE V
_ZTSNSt8__detail15_BracketMatcherINSt7__cxx1112regex_traitsIcEELb1ELb1EEE V
_ZTSSt11_Mutex_baseILN9__gnu_cxx12_Lock_policyE2EE V
_ZTSSt14default_deleteIN9libcamera11MediaDeviceEE V
_ZTSSt14default_deleteIN9libcamera15PipelineHandlerEE V
_ZTSSt16_Sp_counted_baseILN9__gnu_cxx12_Lock_policyE2EE V
_ZTSSt18bad_variant_access V
_ZTSSt19bad_optional_access V
_ZTSSt19_Sp_counted_deleterIPN9libcamera11MediaDeviceESt14default_deleteIS1_ESaIvELN9__gnu_cxx12_Lock_policyE2EE V
_ZTSSt19_Sp_counted_deleterIPN9libcamera15PipelineHandlerESt14default_deleteIS1_ESaIvELN9__gnu_cxx12_Lock_policyE2EE V
_ZTSSt19_Sp_make_shared_tag V
_ZTSSt23enable_shared_from_thisIN9libcamera15PipelineHandlerEE V
_ZTSSt23enable_shared_from_thisIN9libcamera6CameraEE V
_ZTSSt23_Sp_counted_ptr_inplaceIN9libcamera15BoundMethodPackIbJPNS0_6CameraEEEESaIvELN9__gnu_cxx12_Lock_policyE2EE V
_ZTSSt23_Sp_counted_ptr_inplaceIN9libcamera15BoundMethodPackIiJEEESaIvELN9__gnu_cxx12_Lock_policyE2EE V
_ZTSSt23_Sp_counted_ptr_inplaceIN9libcamera15BoundMethodPackIiJPNS0_6CameraEPKNS0_11ControlListEEEESaIvELN9__gnu_cxx12_Lock_policyE2EE V
_ZTSSt23_Sp_counted_ptr_inplaceIN9libcamera15BoundMethodPackIiJPNS0_6CameraEPNS0_19CameraConfigurationEEEESaIvELN9__gnu_cxx12_Lock_policyE2EE V
_ZTSSt23_Sp_counted_ptr_inplaceIN9libcamera15BoundMethodPackIiJPNS0_6CameraEPNS0_6StreamEPSt6vectorISt10unique_ptrINS0_11FrameBufferESt14default_deleteIS8_EESaISB_EEEEESaIvELN9__gnu_cxx12_Lock_policyE2EE V
_ZTSSt23_Sp_counted_ptr_inplaceIN9libcamera15BoundMethodPackIvJEEESaIvELN9__gnu_cxx12_Lock_policyE2EE V
_ZTSSt23_Sp_counted_ptr_inplaceIN9libcamera15BoundMethodPackIvJjEEESaIvELN9__gnu_cxx12_Lock_policyE2EE V
_ZTSSt23_Sp_counted_ptr_inplaceIN9libcamera15BoundMethodPackIvJjjEEESaIvELN9__gnu_cxx12_Lock_policyE2EE V
_ZTSSt23_Sp_counted_ptr_inplaceIN9libcamera15BoundMethodPackIvJjjRKNS0_11ControlListEEEESaIvELN9__gnu_cxx12_Lock_policyE2EE V
_ZTSSt23_Sp_counted_ptr_inplaceIN9libcamera15BoundMethodPackIvJjPNS0_11FrameBufferES3_NS0_13DebayerParamsEEEESaIvELN9__gnu_cxx12_Lock_policyE2EE V
_ZTSSt23_Sp_counted_ptr_inplaceIN9libcamera15BoundMethodPackIvJjRKNS0_11ControlListEEEESaIvELN9__gnu_cxx12_Lock_policyE2EE V
_ZTSSt23_Sp_counted_ptr_inplaceIN9libcamera15BoundMethodPackIvJPNS0_11FrameBufferEEEESaIvELN9__gnu_cxx12_Lock_policyE2EE V
_ZTSSt23_Sp_counted_ptr_inplaceIN9libcamera15BoundMethodPackIvJPNS0_6CameraEEEESaIvELN9__gnu_cxx12_Lock_policyE2EE V
_ZTSSt23_Sp_counted_ptr_inplaceIN9libcamera15BoundMethodPackIvJPNS0_7RequestEEEESaIvELN9__gnu_cxx12_Lock_policyE2EE V
_ZTSSt23_Sp_counted_ptr_inplaceIN9libcamera15BoundMethodPackIvJRKNS0_10IPCMessageEEEESaIvELN9__gnu_cxx12_Lock_policyE2EE V
_ZTSSt23_Sp_counted_ptr_inplaceIN9libcamera15BoundMethodPackIvJRKNS0_11ControlListEEEESaIvELN9__gnu_cxx12_Lock_policyE2EE V
_ZTSSt23_Sp_counted_ptr_inplaceIN9libcamera15BoundMethodPackIvJRKNS0_11ControlListEjEEESaIvELN9__gnu_cxx12_Lock_policyE2EE V
_ZTSSt23_Sp_counted_ptr_inplaceIN9libcamera15BoundMethodPackIvJRKNS0_11ControlListEPNS0_3ipa3RPi11StartResultEEEESaIvELN9__gnu_cxx12_Lock_policyE2EE V
_ZTSSt23_Sp_counted_ptr_inplaceIN9libcamera15BoundMethodPackIvJRKNS0_3ipa3RPi13PrepareParamsEEEESaIvELN9__gnu_cxx12_Lock_policyE2EE V
_ZTSSt23_Sp_counted_ptr_inplaceIN9libcamera15BoundMethodPackIvJRKNS0_3ipa3RPi13ProcessParamsEEEESaIvELN9__gnu_cxx12_Lock_policyE2EE V
_ZTSSt23_Sp_counted_ptr_inplaceIN9libcamera15BoundMethodPackIvJRKNS0_3ipa3RPi9BufferIdsEbEEESaIvELN9__gnu_cxx12_Lock_policyE2EE V
_ZTSSt23_Sp_counted_ptr_inplaceIN9libcamera15BoundMethodPackIvJRKNS0_3ipa3RPi9BufferIdsEEEESaIvELN9__gnu_cxx12_Lock_policyE2EE V
_ZTSSt23_Sp_counted_ptr_inplaceINSt8__detail4_NFAINSt7__cxx1112regex_traitsIcEEEESaIvELN9__gnu_cxx12_Lock_policyE2EE V
_ZTSZN9libcamera6SignalIJEE10disconnectEvEUlRSt14_List_iteratorIPNS_15BoundMethodBaseEEE_ V
_ZTSZN9libcamera6SignalIJEE10disconnectINS_13CameraManager7PrivateEEEvPT_EUlRSt14_List_iteratorIPNS_15BoundMethodBaseEEE_ V
_ZTSZN9libcamera6SignalIJEE10disconnectINS_15PipelineHandlerEEEvPT_EUlRSt14_List_iteratorIPNS_15BoundMethodBaseEEE_ V
_ZTSZN9libcamera6SignalIJjEE10disconnectEvEUlRSt14_List_iteratorIPNS_15BoundMethodBaseEEE_ V
_ZTSZN9libcamera6SignalIJjEE10disconnectINS_15DelayedControlsEvEEvPT_MS4_FT0_jEEUlRSt14_List_iteratorIPNS_15BoundMethodBaseEEE_ V
_ZTSZN9libcamera6SignalIJjjEE10disconnectEvEUlRSt14_List_iteratorIPNS_15BoundMethodBaseEEE_ V
_ZTSZN9libcamera6SignalIJjRKNS_11ControlListEEE10disconnectEvEUlRSt14_List_iteratorIPNS_15BoundMethodBaseEEE_ V
_ZTSZN9libcamera6SignalIJNS_7Process10ExitStatusEiEE10disconnectEvEUlRSt14_List_iteratorIPNS_15BoundMethodBaseEEE_ V
_ZTSZN9libcamera6SignalIJPNS_11FrameBufferEEE10disconnectEvEUlRSt14_List_iteratorIPNS_15BoundMethodBaseEEE_ V
_ZTSZN9libcamera6SignalIJPNS_11FrameBufferEEE10disconnectINS_16SimpleCameraDataEvEEvPT_MS6_FT0_S2_EEUlRSt14_List_iteratorIPNS_15BoundMethodBaseEEE_ V
_ZTSZN9libcamera6SignalIJPNS_7RequestEEE10disconnectEvEUlRSt14_List_iteratorIPNS_15BoundMethodBaseEEE_ V
_ZTSZN9libcamera6SignalIJPNS_7RequestEPNS_11FrameBufferEEE10disconnectEvEUlRSt14_List_iteratorIPNS_15BoundMethodBaseEEE_ V
_ZTSZN9libcamera6SignalIJRKNS_10IPCMessageEEE10disconnectEvEUlRSt14_List_iteratorIPNS_15BoundMethodBaseEEE_ V
_ZTSZN9libcamera6SignalIJRKNS_11ControlListEEE10disconnectEvEUlRSt14_List_iteratorIPNS_15BoundMethodBaseEEE_ V
_ZTSZN9libcamera6SignalIJRKNS_11ControlListEjEE10disconnectEvEUlRSt14_List_iteratorIPNS_15BoundMethodBaseEEE_ V
_ZTSZN9libcamera6SignalIJRKNS_3ipa3RPi9BufferIdsEbEE10disconnectEvEUlRSt14_List_iteratorIPNS_15BoundMethodBaseEEE_ V
_ZTSZN9libcamera6SignalIJRKNS_3ipa3RPi9BufferIdsEEE10disconnectEvEUlRSt14_List_iteratorIPNS_15BoundMethodBaseEEE_ V
_ZTSZN9libcamera6SignalIJSt10shared_ptrINS_6CameraEEEE10disconnectEvEUlRSt14_List_iteratorIPNS_15BoundMethodBaseEEE_ V
_ZTVN9libcamera10CameraLensE V
_ZTVN9libcamera10DebayerCpuE V
_ZTVN9libcamera10V4L2DeviceE V
_ZTVN9libcamera11FrameBuffer7PrivateE V
_ZTVN9libcamera11FrameBufferE V
_ZTVN9libcamera11MediaDeviceE V
_ZTVN9libcamera11MediaEntityE V
_ZTVN9libcamera11SoftwareIspE V
_ZTVN9libcamera12CameraSensorE V
_ZTVN9libcamera13CameraManager7PrivateE V
_ZTVN9libcamera13CameraManagerE V
_ZTVN9libcamera13ISICameraDataE V
_ZTVN9libcamera13UVCCameraDataE V
_ZTVN9libcamera13V4L2SubdeviceE V
_ZTVN9libcamera13Vc4CameraDataE V
_ZTVN9libcamera14PiSPCameraDataE V
_ZTVN9libcamera15BoundMethodPackIbJPNS_6CameraEEEE V
_ZTVN9libcamera15BoundMethodPackIiJEEE V
_ZTVN9libcamera15BoundMethodPackIiJPNS_6CameraEPKNS_11ControlListEEEE V
_ZTVN9libcamera15BoundMethodPackIiJPNS_6CameraEPNS_19CameraConfigurationEEEE V
_ZTVN9libcamera15BoundMethodPackIiJPNS_6CameraEPNS_6StreamEPSt6vectorISt10unique_ptrINS_11FrameBufferESt14default_deleteIS7_EESaISA_EEEEE V
_ZTVN9libcamera15BoundMethodPackIvJEEE V
_ZTVN9libcamera15BoundMethodPackIvJjEEE V
_ZTVN9libcamera15BoundMethodPackIvJjjEEE V
_ZTVN9libcamera15BoundMethodPackIvJjjRKNS_11ControlListEEEE V
_ZTVN9libcamera15BoundMethodPackIvJjPNS_11FrameBufferES2_NS_13DebayerParamsEEEE V
_ZTVN9libcamera15BoundMethodPackIvJjRKNS_11ControlListEEEE V
_ZTVN9libcamera15BoundMethodPackIvJPNS_11FrameBufferEEEE V
_ZTVN9libcamera15BoundMethodPackIvJPNS_6CameraEEEE V
_ZTVN9libcamera15BoundMethodPackIvJPNS_7RequestEEEE V
_ZTVN9libcamera15BoundMethodPackIvJRKNS_10IPCMessageEEEE V
_ZTVN9libcamera15BoundMethodPackIvJRKNS_11ControlListEEEE V
_ZTVN9libcamera15BoundMethodPackIvJRKNS_11ControlListEjEEE V
_ZTVN9libcamera15BoundMethodPackIvJRKNS_11ControlListEPNS_3ipa3RPi11StartResultEEEE V
_ZTVN9libcamera15BoundMethodPackIvJRKNS_3ipa3RPi13PrepareParamsEEEE V
_ZTVN9libcamera15BoundMethodPackIvJRKNS_3ipa3RPi13ProcessParamsEEEE V
_ZTVN9libcamera15BoundMethodPackIvJRKNS_3ipa3RPi9BufferIdsEbEEE V
_ZTVN9libcamera15BoundMethodPackIvJRKNS_3ipa3RPi9BufferIdsEEEE V
_ZTVN9libcamera15CameraSensorRawE V
_ZTVN9libcamera15PipelineHandlerE V
_ZTVN9libcamera15SharedMemObjectIN7libpisp7BackEndEvEE V
_ZTVN9libcamera15SharedMemObjectIN7libpisp8FrontEndEvEE V
_ZTVN9libcamera15SharedMemObjectINS_10SwIspStatsEvEE V
_ZTVN9libcamera15SharedMemObjectINS_13DebayerParamsEvEE V
_ZTVN9libcamera15V4L2VideoDeviceE V
_ZTVN9libcamera16ConverterFactoryINS_16V4L2M2MConverterEEE V
_ZTVN9libcamera16DeviceEnumeratorE V
_ZTVN9libcamera16RkISP1CameraDataE V
_ZTVN9libcamera16SimpleCameraDataE V
_ZTVN9libcamera16V4L2M2MConverter13V4L2M2MStreamE V
_ZTVN9libcamera16V4L2M2MConverterE V
_ZTVN9libcamera17BoundMethodMemberINS_10DebayerCpuEvJjPNS_11FrameBufferES3_NS_13DebayerParamsEEEE V
_ZTVN9libcamera17BoundMethodMemberINS_10V4L2DeviceEvJEEE V
_ZTVN9libcamera17BoundMethodMemberINS_11SoftwareIspEvJEEE V
_ZTVN9libcamera17BoundMethodMemberINS_11SoftwareIspEvJjjEEE V
_ZTVN9libcamera17BoundMethodMemberINS_11SoftwareIspEvJPNS_11FrameBufferEEEE V
_ZTVN9libcamera17BoundMethodMemberINS_11SoftwareIspEvJRKNS_11ControlListEEEE V
_ZTVN9libcamera17BoundMethodMemberINS_13CameraManager7PrivateEvJEEE V
_ZTVN9libcamera17BoundMethodMemberINS_13IPCUnixSocketEvJEEE V
_ZTVN9libcamera17BoundMethodMemberINS_13UVCCameraDataEvJPNS_11FrameBufferEEEE V
_ZTVN9libcamera17BoundMethodMemberINS_13Vc4CameraDataEvJjEEE V
_ZTVN9libcamera17BoundMethodMemberINS_13Vc4CameraDataEvJPNS_11FrameBufferEEEE V
_ZTVN9libcamera17BoundMethodMemberINS_13Vc4CameraDataEvJRKNS_11ControlListEEEE V
_ZTVN9libcamera17BoundMethodMemberINS_13Vc4CameraDataEvJRKNS_3ipa3RPi9BufferIdsEbEEE V
_ZTVN9libcamera17BoundMethodMemberINS_13Vc4CameraDataEvJRKNS_3ipa3RPi9BufferIdsEEEE V
_ZTVN9libcamera17BoundMethodMemberINS_14PiSPCameraDataEvJjEEE V
_ZTVN9libcamera17BoundMethodMemberINS_14PiSPCameraDataEvJPNS_11FrameBufferEEEE V
_ZTVN9libcamera17BoundMethodMemberINS_14PiSPCameraDataEvJRKNS_3ipa3RPi9BufferIdsEbEEE V
_ZTVN9libcamera17BoundMethodMemberINS_14PiSPCameraDataEvJRKNS_3ipa3RPi9BufferIdsEEEE V
_ZTVN9libcamera17BoundMethodMemberINS_14ProcessManagerEvJEEE V
_ZTVN9libcamera17BoundMethodMemberINS_15DelayedControlsEvJjEEE V
_ZTVN9libcamera17BoundMethodMemberINS_15PipelineHandlerEbJPNS_6CameraEEEE V
_ZTVN9libcamera17BoundMethodMemberINS_15PipelineHandlerEiJPNS_6CameraEPKNS_11ControlListEEEE V
_ZTVN9libcamera17BoundMethodMemberINS_15PipelineHandlerEiJPNS_6CameraEPNS_19CameraConfigurationEEEE V
_ZTVN9libcamera17BoundMethodMemberINS_15PipelineHandlerEiJPNS_6CameraEPNS_6StreamEPSt6vectorISt10unique_ptrINS_11FrameBufferESt14default_deleteIS8_EESaISB_EEEEE V
_ZTVN9libcamera17BoundMethodMemberINS_15PipelineHandlerEvJEEE V
_ZTVN9libcamera17BoundMethodMemberINS_15PipelineHandlerEvJPNS_6CameraEEEE V
_ZTVN9libcamera17BoundMethodMemberINS_15PipelineHandlerEvJPNS_7RequestEEEE V
_ZTVN9libcamera17BoundMethodMemberINS_15V4L2VideoDeviceEvJEEE V
_ZTVN9libcamera17BoundMethodMemberINS_16RkISP1CameraDataEvJjjEEE V
_ZTVN9libcamera17BoundMethodMemberINS_16RkISP1CameraDataEvJjRKNS_11ControlListEEEE V
_ZTVN9libcamera17BoundMethodMemberINS_16SimpleCameraDataEvJjjEEE V
_ZTVN9libcamera17BoundMethodMemberINS_16SimpleCameraDataEvJjRKNS_11ControlListEEEE V
_ZTVN9libcamera17BoundMethodMemberINS_16SimpleCameraDataEvJPNS_11FrameBufferEEEE V
_ZTVN9libcamera17BoundMethodMemberINS_16SimpleCameraDataEvJRKNS_11ControlListEEEE V
_ZTVN9libcamera17BoundMethodMemberINS_16V4L2M2MConverter13V4L2M2MStreamEvJPNS_11FrameBufferEEEE V
_ZTVN9libcamera17BoundMethodMemberINS_17IPCPipeUnixSocketEvJEEE V
_ZTVN9libcamera17BoundMethodMemberINS_17MaliC55CameraDataEvJRKNS_11ControlListEEEE V
_ZTVN9libcamera17BoundMethodMemberINS_18PipelineHandlerISIEvJPNS_11FrameBufferEEEE V
_ZTVN9libcamera17BoundMethodMemberINS_20DeviceEnumeratorUdevEvJEEE V
_ZTVN9libcamera17BoundMethodMemberINS_21PipelineHandlerRkISP1EvJPNS_11FrameBufferEEEE V
_ZTVN9libcamera17BoundMethodMemberINS_22PipelineHandlerMaliC55EvJjEEE V
_ZTVN9libcamera17BoundMethodMemberINS_22PipelineHandlerMaliC55EvJjRKNS_11ControlListEEEE V
_ZTVN9libcamera17BoundMethodMemberINS_22PipelineHandlerMaliC55EvJPNS_11FrameBufferEEEE V
_ZTVN9libcamera17BoundMethodMemberINS_3ipa3RPi11IPAProxyRPi11ThreadProxyEvJEEE V
_ZTVN9libcamera17BoundMethodMemberINS_3ipa3RPi11IPAProxyRPi11ThreadProxyEvJRKNS_11ControlListEPNS2_11StartResultEEEE V
_ZTVN9libcamera17BoundMethodMemberINS_3ipa3RPi11IPAProxyRPi11ThreadProxyEvJRKNS2_13PrepareParamsEEEE V
_ZTVN9libcamera17BoundMethodMemberINS_3ipa3RPi11IPAProxyRPi11ThreadProxyEvJRKNS2_13ProcessParamsEEEE V
_ZTVN9libcamera17BoundMethodMemberINS_3ipa3RPi11IPAProxyRPiEvJjEEE V
_ZTVN9libcamera17BoundMethodMemberINS_3ipa3RPi11IPAProxyRPiEvJRKNS_10IPCMessageEEEE V
_ZTVN9libcamera17BoundMethodMemberINS_3ipa3RPi11IPAProxyRPiEvJRKNS_11ControlListEEEE V
_ZTVN9libcamera17BoundMethodMemberINS_3ipa3RPi11IPAProxyRPiEvJRKNS_11ControlListEjEEE V
_ZTVN9libcamera17BoundMethodMemberINS_3ipa3RPi11IPAProxyRPiEvJRKNS2_9BufferIdsEbEEE V
_ZTVN9libcamera17BoundMethodMemberINS_3ipa3RPi11IPAProxyRPiEvJRKNS2_9BufferIdsEEEE V
_ZTVN9libcamera17BoundMethodMemberINS_3ipa4soft12IPAProxySoft11ThreadProxyEiJEEE V
_ZTVN9libcamera17BoundMethodMemberINS_3ipa4soft12IPAProxySoft11ThreadProxyEvJEEE V
_ZTVN9libcamera17BoundMethodMemberINS_3ipa4soft12IPAProxySoft11ThreadProxyEvJjEEE V
_ZTVN9libcamera17BoundMethodMemberINS_3ipa4soft12IPAProxySoft11ThreadProxyEvJjjRKNS_11ControlListEEEE V
_ZTVN9libcamera17BoundMethodMemberINS_3ipa4soft12IPAProxySoft11ThreadProxyEvJjRKNS_11ControlListEEEE V
_ZTVN9libcamera17BoundMethodMemberINS_3ipa4soft12IPAProxySoftEvJEEE V
_ZTVN9libcamera17BoundMethodMemberINS_3ipa4soft12IPAProxySoftEvJjRKNS_11ControlListEEEE V
_ZTVN9libcamera17BoundMethodMemberINS_3ipa4soft12IPAProxySoftEvJRKNS_10IPCMessageEEEE V
_ZTVN9libcamera17BoundMethodMemberINS_3ipa4soft12IPAProxySoftEvJRKNS_11ControlListEEEE V
_ZTVN9libcamera17BoundMethodMemberINS_3ipa6rkisp114IPAProxyRkISP111ThreadProxyEiJEEE V
_ZTVN9libcamera17BoundMethodMemberINS_3ipa6rkisp114IPAProxyRkISP111ThreadProxyEvJEEE V
_ZTVN9libcamera17BoundMethodMemberINS_3ipa6rkisp114IPAProxyRkISP111ThreadProxyEvJjjEEE V
_ZTVN9libcamera17BoundMethodMemberINS_3ipa6rkisp114IPAProxyRkISP111ThreadProxyEvJjjRKNS_11ControlListEEEE V
_ZTVN9libcamera17BoundMethodMemberINS_3ipa6rkisp114IPAProxyRkISP111ThreadProxyEvJjRKNS_11ControlListEEEE V
_ZTVN9libcamera17BoundMethodMemberINS_3ipa6rkisp114IPAProxyRkISP1EvJjjEEE V
_ZTVN9libcamera17BoundMethodMemberINS_3ipa6rkisp114IPAProxyRkISP1EvJjRKNS_11ControlListEEEE V
_ZTVN9libcamera17BoundMethodMemberINS_3ipa6rkisp114IPAProxyRkISP1EvJRKNS_10IPCMessageEEEE V
_ZTVN9libcamera17BoundMethodMemberINS_3ipa8mali_c5515IPAProxyMaliC5511ThreadProxyEiJEEE V
_ZTVN9libcamera17BoundMethodMemberINS_3ipa8mali_c5515IPAProxyMaliC5511ThreadProxyEvJEEE V
_ZTVN9libcamera17BoundMethodMemberINS_3ipa8mali_c5515IPAProxyMaliC5511ThreadProxyEvJjjEEE V
_ZTVN9libcamera17BoundMethodMemberINS_3ipa8mali_c5515IPAProxyMaliC5511ThreadProxyEvJjjRKNS_11ControlListEEEE V
_ZTVN9libcamera17BoundMethodMemberINS_3ipa8mali_c5515IPAProxyMaliC5511ThreadProxyEvJjRKNS_11ControlListEEEE V
_ZTVN9libcamera17BoundMethodMemberINS_3ipa8mali_c5515IPAProxyMaliC55EvJjEEE V
_ZTVN9libcamera17BoundMethodMemberINS_3ipa8mali_c5515IPAProxyMaliC55EvJjRKNS_11ControlListEEEE V
_ZTVN9libcamera17BoundMethodMemberINS_3ipa8mali_c5515IPAProxyMaliC55EvJRKNS_10IPCMessageEEEE V
_ZTVN9libcamera17BoundMethodMemberINS_3ipa8mali_c5515IPAProxyMaliC55EvJRKNS_11ControlListEEEE V
_ZTVN9libcamera17BoundMethodMemberINS_3RPi10CameraDataEvJEEE V
_ZTVN9libcamera17BoundMethodMemberINS_3RPi10CameraDataEvJjEEE V
_ZTVN9libcamera17BoundMethodMemberINS_3RPi10CameraDataEvJRKNS_11ControlListEEEE V
_ZTVN9libcamera17BoundMethodMemberINS_3RPi10CameraDataEvJRKNS_11ControlListEjEEE V
_ZTVN9libcamera17BoundMethodMemberINS_7Request7PrivateEvJEEE V
_ZTVN9libcamera17IPCPipeUnixSocketE V
_ZTVN9libcamera17MaliC55CameraDataE V
_ZTVN9libcamera18CameraSensorLegacyE V
_ZTVN9libcamera18PipelineHandlerISIE V
_ZTVN9libcamera18PipelineHandlerUVCE V
_ZTVN9libcamera18PipelineHandlerVc4E V
_ZTVN9libcamera19CameraConfigurationE V
_ZTVN9libcamera19CameraSensorFactoryINS_15CameraSensorRawEEE V
_ZTVN9libcamera19CameraSensorFactoryINS_18CameraSensorLegacyEEE V
_ZTVN9libcamera19PipelineHandlerPiSPE V
_ZTVN9libcamera20ConverterFactoryBaseE V
_ZTVN9libcamera20DeviceEnumeratorUdevE V
_ZTVN9libcamera21DeviceEnumeratorSysfsE V
_ZTVN9libcamera21PipelineHandlerRkISP1E V
_ZTVN9libcamera21SimplePipelineHandlerE V
_ZTVN9libcamera22CameraControlValidatorE V
_ZTVN9libcamera22ISICameraConfigurationE V
_ZTVN9libcamera22PipelineHandlerFactoryINS_18PipelineHandlerISIEEE V
_ZTVN9libcamera22PipelineHandlerFactoryINS_18PipelineHandlerUVCEEE V
_ZTVN9libcamera22PipelineHandlerFactoryINS_18PipelineHandlerVc4EEE V
_ZTVN9libcamera22PipelineHandlerFactoryINS_19PipelineHandlerPiSPEEE V
_ZTVN9libcamera22PipelineHandlerFactoryINS_21PipelineHandlerRkISP1EEE V
_ZTVN9libcamera22PipelineHandlerFactoryINS_21SimplePipelineHandlerEEE V
_ZTVN9libcamera22PipelineHandlerFactoryINS_22PipelineHandlerMaliC55EEE V
_ZTVN9libcamera22PipelineHandlerMaliC55E V
_ZTVN9libcamera22UVCCameraConfigurationE V
_ZTVN9libcamera23CameraSensorFactoryBaseE V
_ZTVN9libcamera25RkISP1CameraConfigurationE V
_ZTVN9libcamera25SimpleCameraConfigurationE V
_ZTVN9libcamera26MaliC55CameraConfigurationE V
_ZTVN9libcamera26PipelineHandlerFactoryBaseE V
_ZTVN9libcamera3ipa3RPi11IPAProxyRPi11ThreadProxyE V
_ZTVN9libcamera3ipa3RPi11IPAProxyRPiE V
_ZTVN9libcamera3ipa3RPi15IPARPiInterfaceE V
_ZTVN9libcamera3ipa4soft12IPAProxySoft11ThreadProxyE V
_ZTVN9libcamera3ipa4soft12IPAProxySoftE V
_ZTVN9libcamera3ipa4soft16IPASoftInterfaceE V
_ZTVN9libcamera3ipa6rkisp114IPAProxyRkISP111ThreadProxyE V
_ZTVN9libcamera3ipa6rkisp114IPAProxyRkISP1E V
_ZTVN9libcamera3ipa6rkisp118IPARkISP1InterfaceE V
_ZTVN9libcamera3ipa8mali_c5515IPAProxyMaliC5511ThreadProxyE V
_ZTVN9libcamera3ipa8mali_c5515IPAProxyMaliC55E V
_ZTVN9libcamera3ipa8mali_c5519IPAMaliC55InterfaceE V
_ZTVN9libcamera3RPi10CameraDataE V
_ZTVN9libcamera3RPi19PipelineHandlerBaseE V
_ZTVN9libcamera3RPi22RPiCameraConfigurationE V
_ZTVN9libcamera6Camera7PrivateE V
_ZTVN9libcamera6CameraE V
_ZTVN9libcamera7DebayerE V
_ZTVN9libcamera7IPCPipeE V
_ZTVN9libcamera7Request7PrivateE V
_ZTVN9libcamera8IPAProxyE V
_ZTVN9libcamera8MediaPadE V
_ZTVN9libcamera9ConverterE V
_ZTVN9libcamera9IPAModuleE V
_ZTVN9libcamera9MediaLinkE V
_ZTVN9libcamera9SharedMemE V
_ZTVSt18bad_variant_access V
_ZTVSt19bad_optional_access V
_ZTVSt19_Sp_counted_deleterIPN9libcamera11MediaDeviceESt14default_deleteIS1_ESaIvELN9__gnu_cxx12_Lock_policyE2EE V
_ZTVSt19_Sp_counted_deleterIPN9libcamera15PipelineHandlerESt14default_deleteIS1_ESaIvELN9__gnu_cxx12_Lock_policyE2EE V
_ZTVSt23_Sp_counted_ptr_inplaceIN9libcamera15BoundMethodPackIbJPNS0_6CameraEEEESaIvELN9__gnu_cxx12_Lock_policyE2EE V
_ZTVSt23_Sp_counted_ptr_inplaceIN9libcamera15BoundMethodPackIiJEEESaIvELN9__gnu_cxx12_Lock_policyE2EE V
_ZTVSt23_Sp_counted_ptr_inplaceIN9libcamera15BoundMethodPackIiJPNS0_6CameraEPKNS0_11ControlListEEEESaIvELN9__gnu_cxx12_Lock_policyE2EE V
_ZTVSt23_Sp_counted_ptr_inplaceIN9libcamera15BoundMethodPackIiJPNS0_6CameraEPNS0_19CameraConfigurationEEEESaIvELN9__gnu_cxx12_Lock_policyE2EE V
_ZTVSt23_Sp_counted_ptr_inplaceIN9libcamera15BoundMethodPackIiJPNS0_6CameraEPNS0_6StreamEPSt6vectorISt10unique_ptrINS0_11FrameBufferESt14default_deleteIS8_EESaISB_EEEEESaIvELN9__gnu_cxx12_Lock_policyE2EE V
_ZTVSt23_Sp_counted_ptr_inplaceIN9libcamera15BoundMethodPackIvJEEESaIvELN9__gnu_cxx12_Lock_policyE2EE V
_ZTVSt23_Sp_counted_ptr_inplaceIN9libcamera15BoundMethodPackIvJjEEESaIvELN9__gnu_cxx12_Lock_policyE2EE V
_ZTVSt23_Sp_counted_ptr_inplaceIN9libcamera15BoundMethodPackIvJjjEEESaIvELN9__gnu_cxx12_Lock_policyE2EE V
_ZTVSt23_Sp_counted_ptr_inplaceIN9libcamera15BoundMethodPackIvJjjRKNS0_11ControlListEEEESaIvELN9__gnu_cxx12_Lock_policyE2EE V
_ZTVSt23_Sp_counted_ptr_inplaceIN9libcamera15BoundMethodPackIvJjPNS0_11FrameBufferES3_NS0_13DebayerParamsEEEESaIvELN9__gnu_cxx12_Lock_policyE2EE V
_ZTVSt23_Sp_counted_ptr_inplaceIN9libcamera15BoundMethodPackIvJjRKNS0_11ControlListEEEESaIvELN9__gnu_cxx12_Lock_policyE2EE V
_ZTVSt23_Sp_counted_ptr_inplaceIN9libcamera15BoundMethodPackIvJPNS0_11FrameBufferEEEESaIvELN9__gnu_cxx12_Lock_policyE2EE V
_ZTVSt23_Sp_counted_ptr_inplaceIN9libcamera15BoundMethodPackIvJPNS0_6CameraEEEESaIvELN9__gnu_cxx12_Lock_policyE2EE V
_ZTVSt23_Sp_counted_ptr_inplaceIN9libcamera15BoundMethodPackIvJPNS0_7RequestEEEESaIvELN9__gnu_cxx12_Lock_policyE2EE V
_ZTVSt23_Sp_counted_ptr_inplaceIN9libcamera15BoundMethodPackIvJRKNS0_10IPCMessageEEEESaIvELN9__gnu_cxx12_Lock_policyE2EE V
_ZTVSt23_Sp_counted_ptr_inplaceIN9libcamera15BoundMethodPackIvJRKNS0_11ControlListEEEESaIvELN9__gnu_cxx12_Lock_policyE2EE V
_ZTVSt23_Sp_counted_ptr_inplaceIN9libcamera15BoundMethodPackIvJRKNS0_11ControlListEjEEESaIvELN9__gnu_cxx12_Lock_policyE2EE V
_ZTVSt23_Sp_counted_ptr_inplaceIN9libcamera15BoundMethodPackIvJRKNS0_11ControlListEPNS0_3ipa3RPi11StartResultEEEESaIvELN9__gnu_cxx12_Lock_policyE2EE V
_ZTVSt23_Sp_counted_ptr_inplaceIN9libcamera15BoundMethodPackIvJRKNS0_3ipa3RPi13PrepareParamsEEEESaIvELN9__gnu_cxx12_Lock_policyE2EE V
_ZTVSt23_Sp_counted_ptr_inplaceIN9libcamera15BoundMethodPackIvJRKNS0_3ipa3RPi13ProcessParamsEEEESaIvELN9__gnu_cxx12_Lock_policyE2EE V
_ZTVSt23_Sp_counted_ptr_inplaceIN9libcamera15BoundMethodPackIvJRKNS0_3ipa3RPi9BufferIdsEbEEESaIvELN9__gnu_cxx12_Lock_policyE2EE V
_ZTVSt23_Sp_counted_ptr_inplaceIN9libcamera15BoundMethodPackIvJRKNS0_3ipa3RPi9BufferIdsEEEESaIvELN9__gnu_cxx12_Lock_policyE2EE V
_ZTVSt23_Sp_counted_ptr_inplaceINSt8__detail4_NFAINSt7__cxx1112regex_traitsIcEEEESaIvELN9__gnu_cxx12_Lock_policyE2EE V
_ZZNKSt7__cxx1112regex_traitsIcE16lookup_classnameIPKcEENS1_10_RegexMaskET_S6_bE12__classnames u
_ZZNKSt7__cxx1112regex_traitsIcE18lookup_collatenameIPKcEENS_12basic_stringIcSt11char_traitsIcESaIcEEET_SA_E14__collatenames u
_ZZNKSt8__detail11_AnyMatcherINSt7__cxx1112regex_traitsIcEELb0ELb0ELb0EEclEcE5__nul u
_ZZNKSt8__detail11_AnyMatcherINSt7__cxx1112regex_traitsIcEELb0ELb0ELb1EEclEcE5__nul u
_ZZNKSt8__detail11_AnyMatcherINSt7__cxx1112regex_traitsIcEELb0ELb1ELb0EEclEcE5__nul u
_ZZNKSt8__detail11_AnyMatcherINSt7__cxx1112regex_traitsIcEELb0ELb1ELb1EEclEcE5__nul u
_ZZNKSt8__detail9_ExecutorIN9__gnu_cxx17__normal_iteratorIPKcNSt7__cxx1112basic_stringIcSt11char_traitsIcESaIcEEEEESaINS5_9sub_matchISB_EEENS5_12regex_traitsIcEELb0EE10_M_is_wordEcE3__s u
_ZZNKSt8__detail9_ExecutorIN9__gnu_cxx17__normal_iteratorIPKcNSt7__cxx1112basic_stringIcSt11char_traitsIcESaIcEEEEESaINS5_9sub_matchISB_EEENS5_12regex_traitsIcEELb1EE10_M_is_wordEcE3__s u
_ZZNSt19_Sp_make_shared_tag5_S_tiEvE5__tag u
_ZZNSt8__detail9_CompilerINSt7__cxx1112regex_traitsIcEEE18_M_expression_termILb1ELb0EEEbRNS4_13_BracketStateERNS_15_BracketMatcherIS3_XT_EXT0_EEEENKUlcE_clEc W
_ZZNSt8__detail9_CompilerINSt7__cxx1112regex_traitsIcEEE18_M_expression_termILb1ELb1EEEbRNS4_13_BracketStateERNS_15_BracketMatcherIS3_XT_EXT0_EEEENKUlcE_clEc W
